
85a5337fb2169b923951342fba2020d8214e138eb24b9e227904ed54ee305dcb:     file format pei-x86-64


Disassembly of section .text:

00000002fc4c1000 <pre_c_init>:
   2fc4c1000:	55                   	push   rbp
   2fc4c1001:	48 89 e5             	mov    rbp,rsp
   2fc4c1004:	48 83 ec 20          	sub    rsp,0x20
   2fc4c1008:	48 8d 05 01 e0 02 00 	lea    rax,[rip+0x2e001]        # 2fc4ef010 <atexit_table>
   2fc4c100f:	48 89 c1             	mov    rcx,rax
   2fc4c1012:	e8 39 a7 00 00       	call   2fc4cb750 <_initialize_onexit_table>
   2fc4c1017:	48 83 c4 20          	add    rsp,0x20
   2fc4c101b:	5d                   	pop    rbp
   2fc4c101c:	c3                   	ret    

00000002fc4c101d <_CRT_INIT>:
   2fc4c101d:	55                   	push   rbp
   2fc4c101e:	48 89 e5             	mov    rbp,rsp
   2fc4c1021:	48 81 ec a0 00 00 00 	sub    rsp,0xa0
   2fc4c1028:	48 89 4d 10          	mov    QWORD PTR [rbp+0x10],rcx
   2fc4c102c:	89 55 18             	mov    DWORD PTR [rbp+0x18],edx
   2fc4c102f:	4c 89 45 20          	mov    QWORD PTR [rbp+0x20],r8
   2fc4c1033:	83 7d 18 00          	cmp    DWORD PTR [rbp+0x18],0x0
   2fc4c1037:	75 25                	jne    2fc4c105e <_CRT_INIT+0x41>
   2fc4c1039:	8b 05 c1 df 02 00    	mov    eax,DWORD PTR [rip+0x2dfc1]        # 2fc4ef000 <__bss_start__>
   2fc4c103f:	85 c0                	test   eax,eax
   2fc4c1041:	7e 11                	jle    2fc4c1054 <_CRT_INIT+0x37>
   2fc4c1043:	8b 05 b7 df 02 00    	mov    eax,DWORD PTR [rip+0x2dfb7]        # 2fc4ef000 <__bss_start__>
   2fc4c1049:	83 e8 01             	sub    eax,0x1
   2fc4c104c:	89 05 ae df 02 00    	mov    DWORD PTR [rip+0x2dfae],eax        # 2fc4ef000 <__bss_start__>
   2fc4c1052:	eb 0a                	jmp    2fc4c105e <_CRT_INIT+0x41>
   2fc4c1054:	b8 00 00 00 00       	mov    eax,0x0
   2fc4c1059:	e9 2b 02 00 00       	jmp    2fc4c1289 <_CRT_INIT+0x26c>
   2fc4c105e:	83 7d 18 01          	cmp    DWORD PTR [rbp+0x18],0x1
   2fc4c1062:	0f 85 6f 01 00 00    	jne    2fc4c11d7 <_CRT_INIT+0x1ba>
   2fc4c1068:	48 c7 45 e8 00 00 00 	mov    QWORD PTR [rbp-0x18],0x0
   2fc4c106f:	00 
   2fc4c1070:	c7 45 dc 30 00 00 00 	mov    DWORD PTR [rbp-0x24],0x30
   2fc4c1077:	8b 45 dc             	mov    eax,DWORD PTR [rbp-0x24]
   2fc4c107a:	65 48 8b 00          	mov    rax,QWORD PTR gs:[rax]
   2fc4c107e:	48 89 45 d0          	mov    QWORD PTR [rbp-0x30],rax
   2fc4c1082:	48 8b 45 d0          	mov    rax,QWORD PTR [rbp-0x30]
   2fc4c1086:	48 8b 40 08          	mov    rax,QWORD PTR [rax+0x8]
   2fc4c108a:	48 89 45 e0          	mov    QWORD PTR [rbp-0x20],rax
   2fc4c108e:	c7 45 fc 00 00 00 00 	mov    DWORD PTR [rbp-0x4],0x0
   2fc4c1095:	eb 21                	jmp    2fc4c10b8 <_CRT_INIT+0x9b>
   2fc4c1097:	48 8b 45 e8          	mov    rax,QWORD PTR [rbp-0x18]
   2fc4c109b:	48 3b 45 e0          	cmp    rax,QWORD PTR [rbp-0x20]
   2fc4c109f:	75 09                	jne    2fc4c10aa <_CRT_INIT+0x8d>
   2fc4c10a1:	c7 45 fc 01 00 00 00 	mov    DWORD PTR [rbp-0x4],0x1
   2fc4c10a8:	eb 45                	jmp    2fc4c10ef <_CRT_INIT+0xd2>
   2fc4c10aa:	b9 e8 03 00 00       	mov    ecx,0x3e8
   2fc4c10af:	48 8b 05 ea 01 03 00 	mov    rax,QWORD PTR [rip+0x301ea]        # 2fc4f12a0 <__imp_Sleep>
   2fc4c10b6:	ff d0                	call   rax
   2fc4c10b8:	48 8b 05 01 a2 02 00 	mov    rax,QWORD PTR [rip+0x2a201]        # 2fc4eb2c0 <.refptr.__native_startup_lock>
   2fc4c10bf:	48 89 45 c8          	mov    QWORD PTR [rbp-0x38],rax
   2fc4c10c3:	48 8b 45 e0          	mov    rax,QWORD PTR [rbp-0x20]
   2fc4c10c7:	48 89 45 c0          	mov    QWORD PTR [rbp-0x40],rax
   2fc4c10cb:	48 c7 45 b8 00 00 00 	mov    QWORD PTR [rbp-0x48],0x0
   2fc4c10d2:	00 
   2fc4c10d3:	48 8b 4d c0          	mov    rcx,QWORD PTR [rbp-0x40]
   2fc4c10d7:	48 8b 45 b8          	mov    rax,QWORD PTR [rbp-0x48]
   2fc4c10db:	48 8b 55 c8          	mov    rdx,QWORD PTR [rbp-0x38]
   2fc4c10df:	f0 48 0f b1 0a       	lock cmpxchg QWORD PTR [rdx],rcx
   2fc4c10e4:	48 89 45 e8          	mov    QWORD PTR [rbp-0x18],rax
   2fc4c10e8:	48 83 7d e8 00       	cmp    QWORD PTR [rbp-0x18],0x0
   2fc4c10ed:	75 a8                	jne    2fc4c1097 <_CRT_INIT+0x7a>
   2fc4c10ef:	48 8b 05 da a1 02 00 	mov    rax,QWORD PTR [rip+0x2a1da]        # 2fc4eb2d0 <.refptr.__native_startup_state>
   2fc4c10f6:	8b 00                	mov    eax,DWORD PTR [rax]
   2fc4c10f8:	83 f8 01             	cmp    eax,0x1
   2fc4c10fb:	75 0c                	jne    2fc4c1109 <_CRT_INIT+0xec>
   2fc4c10fd:	b9 1f 00 00 00       	mov    ecx,0x1f
   2fc4c1102:	e8 b9 a4 00 00       	call   2fc4cb5c0 <_amsg_exit>
   2fc4c1107:	eb 33                	jmp    2fc4c113c <_CRT_INIT+0x11f>
   2fc4c1109:	48 8b 05 c0 a1 02 00 	mov    rax,QWORD PTR [rip+0x2a1c0]        # 2fc4eb2d0 <.refptr.__native_startup_state>
   2fc4c1110:	8b 00                	mov    eax,DWORD PTR [rax]
   2fc4c1112:	85 c0                	test   eax,eax
   2fc4c1114:	75 26                	jne    2fc4c113c <_CRT_INIT+0x11f>
   2fc4c1116:	48 8b 05 b3 a1 02 00 	mov    rax,QWORD PTR [rip+0x2a1b3]        # 2fc4eb2d0 <.refptr.__native_startup_state>
   2fc4c111d:	c7 00 01 00 00 00    	mov    DWORD PTR [rax],0x1
   2fc4c1123:	48 8b 05 e6 a1 02 00 	mov    rax,QWORD PTR [rip+0x2a1e6]        # 2fc4eb310 <.refptr.__xi_z>
   2fc4c112a:	48 89 c2             	mov    rdx,rax
   2fc4c112d:	48 8b 05 cc a1 02 00 	mov    rax,QWORD PTR [rip+0x2a1cc]        # 2fc4eb300 <.refptr.__xi_a>
   2fc4c1134:	48 89 c1             	mov    rcx,rax
   2fc4c1137:	e8 24 a6 00 00       	call   2fc4cb760 <_initterm>
   2fc4c113c:	48 8b 05 8d a1 02 00 	mov    rax,QWORD PTR [rip+0x2a18d]        # 2fc4eb2d0 <.refptr.__native_startup_state>
   2fc4c1143:	8b 00                	mov    eax,DWORD PTR [rax]
   2fc4c1145:	83 f8 01             	cmp    eax,0x1
   2fc4c1148:	75 26                	jne    2fc4c1170 <_CRT_INIT+0x153>
   2fc4c114a:	48 8b 05 9f a1 02 00 	mov    rax,QWORD PTR [rip+0x2a19f]        # 2fc4eb2f0 <.refptr.__xc_z>
   2fc4c1151:	48 89 c2             	mov    rdx,rax
   2fc4c1154:	48 8b 05 85 a1 02 00 	mov    rax,QWORD PTR [rip+0x2a185]        # 2fc4eb2e0 <.refptr.__xc_a>
   2fc4c115b:	48 89 c1             	mov    rcx,rax
   2fc4c115e:	e8 fd a5 00 00       	call   2fc4cb760 <_initterm>
   2fc4c1163:	48 8b 05 66 a1 02 00 	mov    rax,QWORD PTR [rip+0x2a166]        # 2fc4eb2d0 <.refptr.__native_startup_state>
   2fc4c116a:	c7 00 02 00 00 00    	mov    DWORD PTR [rax],0x2
   2fc4c1170:	83 7d fc 00          	cmp    DWORD PTR [rbp-0x4],0x0
   2fc4c1174:	75 1e                	jne    2fc4c1194 <_CRT_INIT+0x177>
   2fc4c1176:	48 8b 05 43 a1 02 00 	mov    rax,QWORD PTR [rip+0x2a143]        # 2fc4eb2c0 <.refptr.__native_startup_lock>
   2fc4c117d:	48 89 45 b0          	mov    QWORD PTR [rbp-0x50],rax
   2fc4c1181:	48 c7 45 a8 00 00 00 	mov    QWORD PTR [rbp-0x58],0x0
   2fc4c1188:	00 
   2fc4c1189:	48 8b 55 a8          	mov    rdx,QWORD PTR [rbp-0x58]
   2fc4c118d:	48 8b 45 b0          	mov    rax,QWORD PTR [rbp-0x50]
   2fc4c1191:	48 87 10             	xchg   QWORD PTR [rax],rdx
   2fc4c1194:	48 8b 05 c5 a0 02 00 	mov    rax,QWORD PTR [rip+0x2a0c5]        # 2fc4eb260 <.refptr.__dyn_tls_init_callback>
   2fc4c119b:	48 8b 00             	mov    rax,QWORD PTR [rax]
   2fc4c119e:	48 85 c0             	test   rax,rax
   2fc4c11a1:	74 20                	je     2fc4c11c3 <_CRT_INIT+0x1a6>
   2fc4c11a3:	48 8b 05 b6 a0 02 00 	mov    rax,QWORD PTR [rip+0x2a0b6]        # 2fc4eb260 <.refptr.__dyn_tls_init_callback>
   2fc4c11aa:	4c 8b 08             	mov    r9,QWORD PTR [rax]
   2fc4c11ad:	48 8b 55 20          	mov    rdx,QWORD PTR [rbp+0x20]
   2fc4c11b1:	48 8b 45 10          	mov    rax,QWORD PTR [rbp+0x10]
   2fc4c11b5:	49 89 d0             	mov    r8,rdx
   2fc4c11b8:	ba 02 00 00 00       	mov    edx,0x2
   2fc4c11bd:	48 89 c1             	mov    rcx,rax
   2fc4c11c0:	41 ff d1             	call   r9
   2fc4c11c3:	8b 05 37 de 02 00    	mov    eax,DWORD PTR [rip+0x2de37]        # 2fc4ef000 <__bss_start__>
   2fc4c11c9:	83 c0 01             	add    eax,0x1
   2fc4c11cc:	89 05 2e de 02 00    	mov    DWORD PTR [rip+0x2de2e],eax        # 2fc4ef000 <__bss_start__>
   2fc4c11d2:	e9 ad 00 00 00       	jmp    2fc4c1284 <_CRT_INIT+0x267>
   2fc4c11d7:	83 7d 18 00          	cmp    DWORD PTR [rbp+0x18],0x0
   2fc4c11db:	0f 85 a3 00 00 00    	jne    2fc4c1284 <_CRT_INIT+0x267>
   2fc4c11e1:	48 c7 45 f0 00 00 00 	mov    QWORD PTR [rbp-0x10],0x0
   2fc4c11e8:	00 
   2fc4c11e9:	eb 0e                	jmp    2fc4c11f9 <_CRT_INIT+0x1dc>
   2fc4c11eb:	b9 e8 03 00 00       	mov    ecx,0x3e8
   2fc4c11f0:	48 8b 05 a9 00 03 00 	mov    rax,QWORD PTR [rip+0x300a9]        # 2fc4f12a0 <__imp_Sleep>
   2fc4c11f7:	ff d0                	call   rax
   2fc4c11f9:	48 8b 05 c0 a0 02 00 	mov    rax,QWORD PTR [rip+0x2a0c0]        # 2fc4eb2c0 <.refptr.__native_startup_lock>
   2fc4c1200:	48 89 45 a0          	mov    QWORD PTR [rbp-0x60],rax
   2fc4c1204:	48 c7 45 98 01 00 00 	mov    QWORD PTR [rbp-0x68],0x1
   2fc4c120b:	00 
   2fc4c120c:	48 c7 45 90 00 00 00 	mov    QWORD PTR [rbp-0x70],0x0
   2fc4c1213:	00 
   2fc4c1214:	48 8b 4d 98          	mov    rcx,QWORD PTR [rbp-0x68]
   2fc4c1218:	48 8b 45 90          	mov    rax,QWORD PTR [rbp-0x70]
   2fc4c121c:	48 8b 55 a0          	mov    rdx,QWORD PTR [rbp-0x60]
   2fc4c1220:	f0 48 0f b1 0a       	lock cmpxchg QWORD PTR [rdx],rcx
   2fc4c1225:	48 89 45 f0          	mov    QWORD PTR [rbp-0x10],rax
   2fc4c1229:	48 83 7d f0 00       	cmp    QWORD PTR [rbp-0x10],0x0
   2fc4c122e:	75 bb                	jne    2fc4c11eb <_CRT_INIT+0x1ce>
   2fc4c1230:	48 8b 05 99 a0 02 00 	mov    rax,QWORD PTR [rip+0x2a099]        # 2fc4eb2d0 <.refptr.__native_startup_state>
   2fc4c1237:	8b 00                	mov    eax,DWORD PTR [rax]
   2fc4c1239:	83 f8 02             	cmp    eax,0x2
   2fc4c123c:	74 0c                	je     2fc4c124a <_CRT_INIT+0x22d>
   2fc4c123e:	b9 1f 00 00 00       	mov    ecx,0x1f
   2fc4c1243:	e8 78 a3 00 00       	call   2fc4cb5c0 <_amsg_exit>
   2fc4c1248:	eb 3a                	jmp    2fc4c1284 <_CRT_INIT+0x267>
   2fc4c124a:	48 8d 05 bf dd 02 00 	lea    rax,[rip+0x2ddbf]        # 2fc4ef010 <atexit_table>
   2fc4c1251:	48 89 c1             	mov    rcx,rax
   2fc4c1254:	e8 df a4 00 00       	call   2fc4cb738 <_execute_onexit_table>
   2fc4c1259:	48 8b 05 70 a0 02 00 	mov    rax,QWORD PTR [rip+0x2a070]        # 2fc4eb2d0 <.refptr.__native_startup_state>
   2fc4c1260:	c7 00 00 00 00 00    	mov    DWORD PTR [rax],0x0
   2fc4c1266:	48 8b 05 53 a0 02 00 	mov    rax,QWORD PTR [rip+0x2a053]        # 2fc4eb2c0 <.refptr.__native_startup_lock>
   2fc4c126d:	48 89 45 88          	mov    QWORD PTR [rbp-0x78],rax
   2fc4c1271:	48 c7 45 80 00 00 00 	mov    QWORD PTR [rbp-0x80],0x0
   2fc4c1278:	00 
   2fc4c1279:	48 8b 55 80          	mov    rdx,QWORD PTR [rbp-0x80]
   2fc4c127d:	48 8b 45 88          	mov    rax,QWORD PTR [rbp-0x78]
   2fc4c1281:	48 87 10             	xchg   QWORD PTR [rax],rdx
   2fc4c1284:	b8 01 00 00 00       	mov    eax,0x1
   2fc4c1289:	48 81 c4 a0 00 00 00 	add    rsp,0xa0
   2fc4c1290:	5d                   	pop    rbp
   2fc4c1291:	c3                   	ret    

00000002fc4c1292 <DllMainCRTStartup>:
   2fc4c1292:	55                   	push   rbp
   2fc4c1293:	48 89 e5             	mov    rbp,rsp
   2fc4c1296:	48 83 ec 20          	sub    rsp,0x20
   2fc4c129a:	48 89 4d 10          	mov    QWORD PTR [rbp+0x10],rcx
   2fc4c129e:	89 55 18             	mov    DWORD PTR [rbp+0x18],edx
   2fc4c12a1:	4c 89 45 20          	mov    QWORD PTR [rbp+0x20],r8
   2fc4c12a5:	48 8b 05 e4 9f 02 00 	mov    rax,QWORD PTR [rip+0x29fe4]        # 2fc4eb290 <.refptr.__mingw_app_type>
   2fc4c12ac:	c7 00 00 00 00 00    	mov    DWORD PTR [rax],0x0
   2fc4c12b2:	48 8b 4d 20          	mov    rcx,QWORD PTR [rbp+0x20]
   2fc4c12b6:	8b 55 18             	mov    edx,DWORD PTR [rbp+0x18]
   2fc4c12b9:	48 8b 45 10          	mov    rax,QWORD PTR [rbp+0x10]
   2fc4c12bd:	49 89 c8             	mov    r8,rcx
   2fc4c12c0:	48 89 c1             	mov    rcx,rax
   2fc4c12c3:	e8 06 00 00 00       	call   2fc4c12ce <__DllMainCRTStartup>
   2fc4c12c8:	48 83 c4 20          	add    rsp,0x20
   2fc4c12cc:	5d                   	pop    rbp
   2fc4c12cd:	c3                   	ret    

00000002fc4c12ce <__DllMainCRTStartup>:
   2fc4c12ce:	55                   	push   rbp
   2fc4c12cf:	48 89 e5             	mov    rbp,rsp
   2fc4c12d2:	48 83 ec 30          	sub    rsp,0x30
   2fc4c12d6:	48 89 4d 10          	mov    QWORD PTR [rbp+0x10],rcx
   2fc4c12da:	89 55 18             	mov    DWORD PTR [rbp+0x18],edx
   2fc4c12dd:	4c 89 45 20          	mov    QWORD PTR [rbp+0x20],r8
   2fc4c12e1:	c7 45 fc 01 00 00 00 	mov    DWORD PTR [rbp-0x4],0x1
   2fc4c12e8:	48 8b 05 c1 9f 02 00 	mov    rax,QWORD PTR [rip+0x29fc1]        # 2fc4eb2b0 <.refptr.__native_dllmain_reason>
   2fc4c12ef:	8b 55 18             	mov    edx,DWORD PTR [rbp+0x18]
   2fc4c12f2:	89 10                	mov    DWORD PTR [rax],edx
   2fc4c12f4:	83 7d 18 00          	cmp    DWORD PTR [rbp+0x18],0x0
   2fc4c12f8:	75 16                	jne    2fc4c1310 <__DllMainCRTStartup+0x42>
   2fc4c12fa:	8b 05 00 dd 02 00    	mov    eax,DWORD PTR [rip+0x2dd00]        # 2fc4ef000 <__bss_start__>
   2fc4c1300:	85 c0                	test   eax,eax
   2fc4c1302:	75 0c                	jne    2fc4c1310 <__DllMainCRTStartup+0x42>
   2fc4c1304:	c7 45 fc 00 00 00 00 	mov    DWORD PTR [rbp-0x4],0x0
   2fc4c130b:	e9 41 01 00 00       	jmp    2fc4c1451 <__DllMainCRTStartup+0x183>
   2fc4c1310:	e8 33 98 00 00       	call   2fc4cab48 <_pei386_runtime_relocator>
   2fc4c1315:	83 7d 18 01          	cmp    DWORD PTR [rbp+0x18],0x1
   2fc4c1319:	74 06                	je     2fc4c1321 <__DllMainCRTStartup+0x53>
   2fc4c131b:	83 7d 18 02          	cmp    DWORD PTR [rbp+0x18],0x2
   2fc4c131f:	75 69                	jne    2fc4c138a <__DllMainCRTStartup+0xbc>
   2fc4c1321:	48 8b 4d 20          	mov    rcx,QWORD PTR [rbp+0x20]
   2fc4c1325:	8b 55 18             	mov    edx,DWORD PTR [rbp+0x18]
   2fc4c1328:	48 8b 45 10          	mov    rax,QWORD PTR [rbp+0x10]
   2fc4c132c:	49 89 c8             	mov    r8,rcx
   2fc4c132f:	48 89 c1             	mov    rcx,rax
   2fc4c1332:	e8 e6 fc ff ff       	call   2fc4c101d <_CRT_INIT>
   2fc4c1337:	89 45 fc             	mov    DWORD PTR [rbp-0x4],eax
   2fc4c133a:	83 7d fc 00          	cmp    DWORD PTR [rbp-0x4],0x0
   2fc4c133e:	0f 84 06 01 00 00    	je     2fc4c144a <__DllMainCRTStartup+0x17c>
   2fc4c1344:	48 8b 4d 20          	mov    rcx,QWORD PTR [rbp+0x20]
   2fc4c1348:	8b 55 18             	mov    edx,DWORD PTR [rbp+0x18]
   2fc4c134b:	48 8b 45 10          	mov    rax,QWORD PTR [rbp+0x10]
   2fc4c134f:	49 89 c8             	mov    r8,rcx
   2fc4c1352:	48 89 c1             	mov    rcx,rax
   2fc4c1355:	e8 96 a0 00 00       	call   2fc4cb3f0 <DllEntryPoint>
   2fc4c135a:	89 45 fc             	mov    DWORD PTR [rbp-0x4],eax
   2fc4c135d:	83 7d fc 00          	cmp    DWORD PTR [rbp-0x4],0x0
   2fc4c1361:	75 27                	jne    2fc4c138a <__DllMainCRTStartup+0xbc>
   2fc4c1363:	83 7d 18 01          	cmp    DWORD PTR [rbp+0x18],0x1
   2fc4c1367:	0f 85 e0 00 00 00    	jne    2fc4c144d <__DllMainCRTStartup+0x17f>
   2fc4c136d:	48 8b 55 20          	mov    rdx,QWORD PTR [rbp+0x20]
   2fc4c1371:	48 8b 45 10          	mov    rax,QWORD PTR [rbp+0x10]
   2fc4c1375:	49 89 d0             	mov    r8,rdx
   2fc4c1378:	ba 00 00 00 00       	mov    edx,0x0
   2fc4c137d:	48 89 c1             	mov    rcx,rax
   2fc4c1380:	e8 98 fc ff ff       	call   2fc4c101d <_CRT_INIT>
   2fc4c1385:	e9 c3 00 00 00       	jmp    2fc4c144d <__DllMainCRTStartup+0x17f>
   2fc4c138a:	83 7d 18 01          	cmp    DWORD PTR [rbp+0x18],0x1
   2fc4c138e:	75 05                	jne    2fc4c1395 <__DllMainCRTStartup+0xc7>
   2fc4c1390:	e8 82 8e 00 00       	call   2fc4ca217 <__main>
   2fc4c1395:	48 8b 4d 20          	mov    rcx,QWORD PTR [rbp+0x20]
   2fc4c1399:	8b 55 18             	mov    edx,DWORD PTR [rbp+0x18]
   2fc4c139c:	48 8b 45 10          	mov    rax,QWORD PTR [rbp+0x10]
   2fc4c13a0:	49 89 c8             	mov    r8,rcx
   2fc4c13a3:	48 89 c1             	mov    rcx,rax
   2fc4c13a6:	e8 55 78 00 00       	call   2fc4c8c00 <DllMain>
   2fc4c13ab:	89 45 fc             	mov    DWORD PTR [rbp-0x4],eax
   2fc4c13ae:	83 7d 18 01          	cmp    DWORD PTR [rbp+0x18],0x1
   2fc4c13b2:	75 4e                	jne    2fc4c1402 <__DllMainCRTStartup+0x134>
   2fc4c13b4:	83 7d fc 00          	cmp    DWORD PTR [rbp-0x4],0x0
   2fc4c13b8:	75 48                	jne    2fc4c1402 <__DllMainCRTStartup+0x134>
   2fc4c13ba:	48 8b 55 20          	mov    rdx,QWORD PTR [rbp+0x20]
   2fc4c13be:	48 8b 45 10          	mov    rax,QWORD PTR [rbp+0x10]
   2fc4c13c2:	49 89 d0             	mov    r8,rdx
   2fc4c13c5:	ba 00 00 00 00       	mov    edx,0x0
   2fc4c13ca:	48 89 c1             	mov    rcx,rax
   2fc4c13cd:	e8 2e 78 00 00       	call   2fc4c8c00 <DllMain>
   2fc4c13d2:	48 8b 55 20          	mov    rdx,QWORD PTR [rbp+0x20]
   2fc4c13d6:	48 8b 45 10          	mov    rax,QWORD PTR [rbp+0x10]
   2fc4c13da:	49 89 d0             	mov    r8,rdx
   2fc4c13dd:	ba 00 00 00 00       	mov    edx,0x0
   2fc4c13e2:	48 89 c1             	mov    rcx,rax
   2fc4c13e5:	e8 06 a0 00 00       	call   2fc4cb3f0 <DllEntryPoint>
   2fc4c13ea:	48 8b 55 20          	mov    rdx,QWORD PTR [rbp+0x20]
   2fc4c13ee:	48 8b 45 10          	mov    rax,QWORD PTR [rbp+0x10]
   2fc4c13f2:	49 89 d0             	mov    r8,rdx
   2fc4c13f5:	ba 00 00 00 00       	mov    edx,0x0
   2fc4c13fa:	48 89 c1             	mov    rcx,rax
   2fc4c13fd:	e8 1b fc ff ff       	call   2fc4c101d <_CRT_INIT>
   2fc4c1402:	83 7d 18 00          	cmp    DWORD PTR [rbp+0x18],0x0
   2fc4c1406:	74 06                	je     2fc4c140e <__DllMainCRTStartup+0x140>
   2fc4c1408:	83 7d 18 03          	cmp    DWORD PTR [rbp+0x18],0x3
   2fc4c140c:	75 42                	jne    2fc4c1450 <__DllMainCRTStartup+0x182>
   2fc4c140e:	48 8b 4d 20          	mov    rcx,QWORD PTR [rbp+0x20]
   2fc4c1412:	8b 55 18             	mov    edx,DWORD PTR [rbp+0x18]
   2fc4c1415:	48 8b 45 10          	mov    rax,QWORD PTR [rbp+0x10]
   2fc4c1419:	49 89 c8             	mov    r8,rcx
   2fc4c141c:	48 89 c1             	mov    rcx,rax
   2fc4c141f:	e8 cc 9f 00 00       	call   2fc4cb3f0 <DllEntryPoint>
   2fc4c1424:	89 45 fc             	mov    DWORD PTR [rbp-0x4],eax
   2fc4c1427:	48 8b 4d 20          	mov    rcx,QWORD PTR [rbp+0x20]
   2fc4c142b:	8b 55 18             	mov    edx,DWORD PTR [rbp+0x18]
   2fc4c142e:	48 8b 45 10          	mov    rax,QWORD PTR [rbp+0x10]
   2fc4c1432:	49 89 c8             	mov    r8,rcx
   2fc4c1435:	48 89 c1             	mov    rcx,rax
   2fc4c1438:	e8 e0 fb ff ff       	call   2fc4c101d <_CRT_INIT>
   2fc4c143d:	85 c0                	test   eax,eax
   2fc4c143f:	75 0f                	jne    2fc4c1450 <__DllMainCRTStartup+0x182>
   2fc4c1441:	c7 45 fc 00 00 00 00 	mov    DWORD PTR [rbp-0x4],0x0
   2fc4c1448:	eb 07                	jmp    2fc4c1451 <__DllMainCRTStartup+0x183>
   2fc4c144a:	90                   	nop
   2fc4c144b:	eb 04                	jmp    2fc4c1451 <__DllMainCRTStartup+0x183>
   2fc4c144d:	90                   	nop
   2fc4c144e:	eb 01                	jmp    2fc4c1451 <__DllMainCRTStartup+0x183>
   2fc4c1450:	90                   	nop
   2fc4c1451:	48 8b 05 58 9e 02 00 	mov    rax,QWORD PTR [rip+0x29e58]        # 2fc4eb2b0 <.refptr.__native_dllmain_reason>
   2fc4c1458:	c7 00 ff ff ff ff    	mov    DWORD PTR [rax],0xffffffff
   2fc4c145e:	8b 45 fc             	mov    eax,DWORD PTR [rbp-0x4]
   2fc4c1461:	48 83 c4 30          	add    rsp,0x30
   2fc4c1465:	5d                   	pop    rbp
   2fc4c1466:	c3                   	ret    

00000002fc4c1467 <atexit>:
   2fc4c1467:	55                   	push   rbp
   2fc4c1468:	48 89 e5             	mov    rbp,rsp
   2fc4c146b:	48 83 ec 20          	sub    rsp,0x20
   2fc4c146f:	48 89 4d 10          	mov    QWORD PTR [rbp+0x10],rcx
   2fc4c1473:	48 8b 45 10          	mov    rax,QWORD PTR [rbp+0x10]
   2fc4c1477:	48 89 c2             	mov    rdx,rax
   2fc4c147a:	48 8d 05 8f db 02 00 	lea    rax,[rip+0x2db8f]        # 2fc4ef010 <atexit_table>
   2fc4c1481:	48 89 c1             	mov    rcx,rax
   2fc4c1484:	e8 df a2 00 00       	call   2fc4cb768 <_register_onexit_function>
   2fc4c1489:	48 83 c4 20          	add    rsp,0x20
   2fc4c148d:	5d                   	pop    rbp
   2fc4c148e:	c3                   	ret    
   2fc4c148f:	90                   	nop

00000002fc4c1490 <.weak.__register_frame_info.hmod_libgcc>:
   2fc4c1490:	c3                   	ret    
   2fc4c1491:	66 66 2e 0f 1f 84 00 	data16 nop WORD PTR cs:[rax+rax*1+0x0]
   2fc4c1498:	00 00 00 00 
   2fc4c149c:	0f 1f 40 00          	nop    DWORD PTR [rax+0x0]

00000002fc4c14a0 <.weak.__deregister_frame_info.hmod_libgcc>:
   2fc4c14a0:	31 c0                	xor    eax,eax
   2fc4c14a2:	c3                   	ret    
   2fc4c14a3:	66 66 2e 0f 1f 84 00 	data16 nop WORD PTR cs:[rax+rax*1+0x0]
   2fc4c14aa:	00 00 00 00 
   2fc4c14ae:	66 90                	xchg   ax,ax

00000002fc4c14b0 <__gcc_register_frame>:
   2fc4c14b0:	55                   	push   rbp
   2fc4c14b1:	57                   	push   rdi
   2fc4c14b2:	56                   	push   rsi
   2fc4c14b3:	53                   	push   rbx
   2fc4c14b4:	48 83 ec 28          	sub    rsp,0x28
   2fc4c14b8:	48 8d 6c 24 20       	lea    rbp,[rsp+0x20]
   2fc4c14bd:	48 8d 35 3c 9b 02 00 	lea    rsi,[rip+0x29b3c]        # 2fc4eb000 <.rdata>
   2fc4c14c4:	48 89 f1             	mov    rcx,rsi
   2fc4c14c7:	ff 15 ab fd 02 00    	call   QWORD PTR [rip+0x2fdab]        # 2fc4f1278 <__imp_GetModuleHandleA>
   2fc4c14cd:	48 89 c3             	mov    rbx,rax
   2fc4c14d0:	48 85 c0             	test   rax,rax
   2fc4c14d3:	74 6b                	je     2fc4c1540 <__gcc_register_frame+0x90>
   2fc4c14d5:	48 89 f1             	mov    rcx,rsi
   2fc4c14d8:	ff 15 ba fd 02 00    	call   QWORD PTR [rip+0x2fdba]        # 2fc4f1298 <__imp_LoadLibraryA>
   2fc4c14de:	48 8b 3d 9b fd 02 00 	mov    rdi,QWORD PTR [rip+0x2fd9b]        # 2fc4f1280 <__imp_GetProcAddress>
   2fc4c14e5:	48 8d 15 27 9b 02 00 	lea    rdx,[rip+0x29b27]        # 2fc4eb013 <.rdata+0x13>
   2fc4c14ec:	48 89 d9             	mov    rcx,rbx
   2fc4c14ef:	48 89 05 4a db 02 00 	mov    QWORD PTR [rip+0x2db4a],rax        # 2fc4ef040 <hmod_libgcc>
   2fc4c14f6:	ff d7                	call   rdi
   2fc4c14f8:	48 8d 15 2a 9b 02 00 	lea    rdx,[rip+0x29b2a]        # 2fc4eb029 <.rdata+0x29>
   2fc4c14ff:	48 89 d9             	mov    rcx,rbx
   2fc4c1502:	48 89 c6             	mov    rsi,rax
   2fc4c1505:	ff d7                	call   rdi
   2fc4c1507:	48 89 05 02 ab 00 00 	mov    QWORD PTR [rip+0xab02],rax        # 2fc4cc010 <deregister_frame_fn>
   2fc4c150e:	48 85 f6             	test   rsi,rsi
   2fc4c1511:	74 10                	je     2fc4c1523 <__gcc_register_frame+0x73>
   2fc4c1513:	48 8d 15 46 db 02 00 	lea    rdx,[rip+0x2db46]        # 2fc4ef060 <obj>
   2fc4c151a:	48 8d 0d df aa 02 00 	lea    rcx,[rip+0x2aadf]        # 2fc4ec000 <__EH_FRAME_BEGIN__>
   2fc4c1521:	ff d6                	call   rsi
   2fc4c1523:	48 8d 0d 36 00 00 00 	lea    rcx,[rip+0x36]        # 2fc4c1560 <__gcc_deregister_frame>
   2fc4c152a:	48 83 c4 28          	add    rsp,0x28
   2fc4c152e:	5b                   	pop    rbx
   2fc4c152f:	5e                   	pop    rsi
   2fc4c1530:	5f                   	pop    rdi
   2fc4c1531:	5d                   	pop    rbp
   2fc4c1532:	e9 30 ff ff ff       	jmp    2fc4c1467 <atexit>
   2fc4c1537:	66 0f 1f 84 00 00 00 	nop    WORD PTR [rax+rax*1+0x0]
   2fc4c153e:	00 00 
   2fc4c1540:	48 8d 05 59 ff ff ff 	lea    rax,[rip+0xffffffffffffff59]        # 2fc4c14a0 <.weak.__deregister_frame_info.hmod_libgcc>
   2fc4c1547:	48 8d 35 42 ff ff ff 	lea    rsi,[rip+0xffffffffffffff42]        # 2fc4c1490 <.weak.__register_frame_info.hmod_libgcc>
   2fc4c154e:	48 89 05 bb aa 00 00 	mov    QWORD PTR [rip+0xaabb],rax        # 2fc4cc010 <deregister_frame_fn>
   2fc4c1555:	eb bc                	jmp    2fc4c1513 <__gcc_register_frame+0x63>
   2fc4c1557:	66 0f 1f 84 00 00 00 	nop    WORD PTR [rax+rax*1+0x0]
   2fc4c155e:	00 00 

00000002fc4c1560 <__gcc_deregister_frame>:
   2fc4c1560:	55                   	push   rbp
   2fc4c1561:	48 89 e5             	mov    rbp,rsp
   2fc4c1564:	48 83 ec 20          	sub    rsp,0x20
   2fc4c1568:	48 8b 05 a1 aa 00 00 	mov    rax,QWORD PTR [rip+0xaaa1]        # 2fc4cc010 <deregister_frame_fn>
   2fc4c156f:	48 85 c0             	test   rax,rax
   2fc4c1572:	74 09                	je     2fc4c157d <__gcc_deregister_frame+0x1d>
   2fc4c1574:	48 8d 0d 85 aa 02 00 	lea    rcx,[rip+0x2aa85]        # 2fc4ec000 <__EH_FRAME_BEGIN__>
   2fc4c157b:	ff d0                	call   rax
   2fc4c157d:	48 8b 0d bc da 02 00 	mov    rcx,QWORD PTR [rip+0x2dabc]        # 2fc4ef040 <hmod_libgcc>
   2fc4c1584:	48 85 c9             	test   rcx,rcx
   2fc4c1587:	74 0f                	je     2fc4c1598 <__gcc_deregister_frame+0x38>
   2fc4c1589:	48 83 c4 20          	add    rsp,0x20
   2fc4c158d:	5d                   	pop    rbp
   2fc4c158e:	48 ff 25 d3 fc 02 00 	rex.W jmp QWORD PTR [rip+0x2fcd3]        # 2fc4f1268 <__imp_FreeLibrary>
   2fc4c1595:	0f 1f 00             	nop    DWORD PTR [rax]
   2fc4c1598:	48 83 c4 20          	add    rsp,0x20
   2fc4c159c:	5d                   	pop    rbp
   2fc4c159d:	c3                   	ret    
   2fc4c159e:	90                   	nop
   2fc4c159f:	90                   	nop

00000002fc4c15a0 <DllRegisterServer>:
   2fc4c15a0:	55                   	push   rbp
   2fc4c15a1:	41 57                	push   r15
   2fc4c15a3:	41 56                	push   r14
   2fc4c15a5:	41 55                	push   r13
   2fc4c15a7:	41 54                	push   r12
   2fc4c15a9:	56                   	push   rsi
   2fc4c15aa:	57                   	push   rdi
   2fc4c15ab:	53                   	push   rbx
   2fc4c15ac:	48 81 ec b8 07 00 00 	sub    rsp,0x7b8
   2fc4c15b3:	48 8d ac 24 80 00 00 	lea    rbp,[rsp+0x80]
   2fc4c15ba:	00 
   2fc4c15bb:	c7 45 00 d1 50 74 5a 	mov    DWORD PTR [rbp+0x0],0x5a7450d1
   2fc4c15c2:	8b 45 00             	mov    eax,DWORD PTR [rbp+0x0]
   2fc4c15c5:	89 c1                	mov    ecx,eax
   2fc4c15c7:	81 e9 a1 dc 0a 80    	sub    ecx,0x800adca1
   2fc4c15cd:	89 45 fc             	mov    DWORD PTR [rbp-0x4],eax
   2fc4c15d0:	0f 84 83 37 00 00    	je     2fc4c4d59 <DllRegisterServer+0x37b9>
   2fc4c15d6:	e9 00 00 00 00       	jmp    2fc4c15db <DllRegisterServer+0x3b>
   2fc4c15db:	8b 45 fc             	mov    eax,DWORD PTR [rbp-0x4]
   2fc4c15de:	2d bf b4 e6 81       	sub    eax,0x81e6b4bf
   2fc4c15e3:	0f 84 89 2d 00 00    	je     2fc4c4372 <DllRegisterServer+0x2dd2>
   2fc4c15e9:	e9 00 00 00 00       	jmp    2fc4c15ee <DllRegisterServer+0x4e>
   2fc4c15ee:	8b 45 fc             	mov    eax,DWORD PTR [rbp-0x4]
   2fc4c15f1:	2d 9c 32 f8 81       	sub    eax,0x81f8329c
   2fc4c15f6:	0f 84 9e 2f 00 00    	je     2fc4c459a <DllRegisterServer+0x2ffa>
   2fc4c15fc:	e9 00 00 00 00       	jmp    2fc4c1601 <DllRegisterServer+0x61>
   2fc4c1601:	8b 45 fc             	mov    eax,DWORD PTR [rbp-0x4]
   2fc4c1604:	2d 50 bc 14 82       	sub    eax,0x8214bc50
   2fc4c1609:	0f 84 4d 16 00 00    	je     2fc4c2c5c <DllRegisterServer+0x16bc>
   2fc4c160f:	e9 00 00 00 00       	jmp    2fc4c1614 <DllRegisterServer+0x74>
   2fc4c1614:	8b 45 fc             	mov    eax,DWORD PTR [rbp-0x4]
   2fc4c1617:	2d ae 0a e1 83       	sub    eax,0x83e10aae
   2fc4c161c:	0f 84 24 2e 00 00    	je     2fc4c4446 <DllRegisterServer+0x2ea6>
   2fc4c1622:	e9 00 00 00 00       	jmp    2fc4c1627 <DllRegisterServer+0x87>
   2fc4c1627:	8b 45 fc             	mov    eax,DWORD PTR [rbp-0x4]
   2fc4c162a:	2d 60 65 b7 84       	sub    eax,0x84b76560
   2fc4c162f:	0f 84 ee 42 00 00    	je     2fc4c5923 <DllRegisterServer+0x4383>
   2fc4c1635:	e9 00 00 00 00       	jmp    2fc4c163a <DllRegisterServer+0x9a>
   2fc4c163a:	8b 45 fc             	mov    eax,DWORD PTR [rbp-0x4]
   2fc4c163d:	2d 09 1f a1 8a       	sub    eax,0x8aa11f09
   2fc4c1642:	0f 84 3d 3a 00 00    	je     2fc4c5085 <DllRegisterServer+0x3ae5>
   2fc4c1648:	e9 00 00 00 00       	jmp    2fc4c164d <DllRegisterServer+0xad>
   2fc4c164d:	8b 45 fc             	mov    eax,DWORD PTR [rbp-0x4]
   2fc4c1650:	2d 5b 5b 7f 8b       	sub    eax,0x8b7f5b5b
   2fc4c1655:	0f 84 6d 43 00 00    	je     2fc4c59c8 <DllRegisterServer+0x4428>
   2fc4c165b:	e9 00 00 00 00       	jmp    2fc4c1660 <DllRegisterServer+0xc0>
   2fc4c1660:	8b 45 fc             	mov    eax,DWORD PTR [rbp-0x4]
   2fc4c1663:	2d 09 07 95 8b       	sub    eax,0x8b950709
   2fc4c1668:	0f 84 4c 52 00 00    	je     2fc4c68ba <DllRegisterServer+0x531a>
   2fc4c166e:	e9 00 00 00 00       	jmp    2fc4c1673 <DllRegisterServer+0xd3>
   2fc4c1673:	8b 45 fc             	mov    eax,DWORD PTR [rbp-0x4]
   2fc4c1676:	2d e6 c5 c3 8c       	sub    eax,0x8cc3c5e6
   2fc4c167b:	0f 84 44 17 00 00    	je     2fc4c2dc5 <DllRegisterServer+0x1825>
   2fc4c1681:	e9 00 00 00 00       	jmp    2fc4c1686 <DllRegisterServer+0xe6>
   2fc4c1686:	8b 45 fc             	mov    eax,DWORD PTR [rbp-0x4]
   2fc4c1689:	2d fe 80 c7 8d       	sub    eax,0x8dc780fe
   2fc4c168e:	0f 84 ed 17 00 00    	je     2fc4c2e81 <DllRegisterServer+0x18e1>
   2fc4c1694:	e9 00 00 00 00       	jmp    2fc4c1699 <DllRegisterServer+0xf9>
   2fc4c1699:	8b 45 fc             	mov    eax,DWORD PTR [rbp-0x4]
   2fc4c169c:	2d 59 e9 d6 8d       	sub    eax,0x8dd6e959
   2fc4c16a1:	0f 84 52 55 00 00    	je     2fc4c6bf9 <DllRegisterServer+0x5659>
   2fc4c16a7:	e9 00 00 00 00       	jmp    2fc4c16ac <DllRegisterServer+0x10c>
   2fc4c16ac:	8b 45 fc             	mov    eax,DWORD PTR [rbp-0x4]
   2fc4c16af:	2d 0e 95 6f 8e       	sub    eax,0x8e6f950e
   2fc4c16b4:	0f 84 57 41 00 00    	je     2fc4c5811 <DllRegisterServer+0x4271>
   2fc4c16ba:	e9 00 00 00 00       	jmp    2fc4c16bf <DllRegisterServer+0x11f>
   2fc4c16bf:	8b 45 fc             	mov    eax,DWORD PTR [rbp-0x4]
   2fc4c16c2:	2d 3d 1d 58 90       	sub    eax,0x90581d3d
   2fc4c16c7:	0f 84 47 54 00 00    	je     2fc4c6b14 <DllRegisterServer+0x5574>
   2fc4c16cd:	e9 00 00 00 00       	jmp    2fc4c16d2 <DllRegisterServer+0x132>
   2fc4c16d2:	8b 45 fc             	mov    eax,DWORD PTR [rbp-0x4]
   2fc4c16d5:	2d 10 1f 73 90       	sub    eax,0x90731f10
   2fc4c16da:	0f 84 3b 40 00 00    	je     2fc4c571b <DllRegisterServer+0x417b>
   2fc4c16e0:	e9 00 00 00 00       	jmp    2fc4c16e5 <DllRegisterServer+0x145>
   2fc4c16e5:	8b 45 fc             	mov    eax,DWORD PTR [rbp-0x4]
   2fc4c16e8:	2d 32 e3 c2 90       	sub    eax,0x90c2e332
   2fc4c16ed:	0f 84 fb 34 00 00    	je     2fc4c4bee <DllRegisterServer+0x364e>
   2fc4c16f3:	e9 00 00 00 00       	jmp    2fc4c16f8 <DllRegisterServer+0x158>
   2fc4c16f8:	8b 45 fc             	mov    eax,DWORD PTR [rbp-0x4]
   2fc4c16fb:	2d e9 73 e7 90       	sub    eax,0x90e773e9
   2fc4c1700:	0f 84 5b 28 00 00    	je     2fc4c3f61 <DllRegisterServer+0x29c1>
   2fc4c1706:	e9 00 00 00 00       	jmp    2fc4c170b <DllRegisterServer+0x16b>
   2fc4c170b:	8b 45 fc             	mov    eax,DWORD PTR [rbp-0x4]
   2fc4c170e:	2d 77 26 3c 91       	sub    eax,0x913c2677
   2fc4c1713:	0f 84 9e 43 00 00    	je     2fc4c5ab7 <DllRegisterServer+0x4517>
   2fc4c1719:	e9 00 00 00 00       	jmp    2fc4c171e <DllRegisterServer+0x17e>
   2fc4c171e:	8b 45 fc             	mov    eax,DWORD PTR [rbp-0x4]
   2fc4c1721:	2d c2 c7 ef 91       	sub    eax,0x91efc7c2
   2fc4c1726:	0f 84 f4 2e 00 00    	je     2fc4c4620 <DllRegisterServer+0x3080>
   2fc4c172c:	e9 00 00 00 00       	jmp    2fc4c1731 <DllRegisterServer+0x191>
   2fc4c1731:	8b 45 fc             	mov    eax,DWORD PTR [rbp-0x4]
   2fc4c1734:	2d 04 a6 f3 93       	sub    eax,0x93f3a604
   2fc4c1739:	0f 84 e8 3f 00 00    	je     2fc4c5727 <DllRegisterServer+0x4187>
   2fc4c173f:	e9 00 00 00 00       	jmp    2fc4c1744 <DllRegisterServer+0x1a4>
   2fc4c1744:	8b 45 fc             	mov    eax,DWORD PTR [rbp-0x4]
   2fc4c1747:	2d fd 94 05 94       	sub    eax,0x940594fd
   2fc4c174c:	0f 84 a1 14 00 00    	je     2fc4c2bf3 <DllRegisterServer+0x1653>
   2fc4c1752:	e9 00 00 00 00       	jmp    2fc4c1757 <DllRegisterServer+0x1b7>
   2fc4c1757:	8b 45 fc             	mov    eax,DWORD PTR [rbp-0x4]
   2fc4c175a:	2d cf a9 42 97       	sub    eax,0x9742a9cf
   2fc4c175f:	0f 84 98 30 00 00    	je     2fc4c47fd <DllRegisterServer+0x325d>
   2fc4c1765:	e9 00 00 00 00       	jmp    2fc4c176a <DllRegisterServer+0x1ca>
   2fc4c176a:	8b 45 fc             	mov    eax,DWORD PTR [rbp-0x4]
   2fc4c176d:	2d 7f e5 cf 9b       	sub    eax,0x9bcfe57f
   2fc4c1772:	0f 84 e9 20 00 00    	je     2fc4c3861 <DllRegisterServer+0x22c1>
   2fc4c1778:	e9 00 00 00 00       	jmp    2fc4c177d <DllRegisterServer+0x1dd>
   2fc4c177d:	8b 45 fc             	mov    eax,DWORD PTR [rbp-0x4]
   2fc4c1780:	2d bb 36 ea 9b       	sub    eax,0x9bea36bb
   2fc4c1785:	0f 84 b1 2f 00 00    	je     2fc4c473c <DllRegisterServer+0x319c>
   2fc4c178b:	e9 00 00 00 00       	jmp    2fc4c1790 <DllRegisterServer+0x1f0>
   2fc4c1790:	8b 45 fc             	mov    eax,DWORD PTR [rbp-0x4]
   2fc4c1793:	2d ab 56 91 9c       	sub    eax,0x9c9156ab
   2fc4c1798:	0f 84 bc 53 00 00    	je     2fc4c6b5a <DllRegisterServer+0x55ba>
   2fc4c179e:	e9 00 00 00 00       	jmp    2fc4c17a3 <DllRegisterServer+0x203>
   2fc4c17a3:	8b 45 fc             	mov    eax,DWORD PTR [rbp-0x4]
   2fc4c17a6:	2d e7 c2 5a 9e       	sub    eax,0x9e5ac2e7
   2fc4c17ab:	0f 84 34 43 00 00    	je     2fc4c5ae5 <DllRegisterServer+0x4545>
   2fc4c17b1:	e9 00 00 00 00       	jmp    2fc4c17b6 <DllRegisterServer+0x216>
   2fc4c17b6:	8b 45 fc             	mov    eax,DWORD PTR [rbp-0x4]
   2fc4c17b9:	2d 27 b1 1f 9f       	sub    eax,0x9f1fb127
   2fc4c17be:	0f 84 3c 16 00 00    	je     2fc4c2e00 <DllRegisterServer+0x1860>
   2fc4c17c4:	e9 00 00 00 00       	jmp    2fc4c17c9 <DllRegisterServer+0x229>
   2fc4c17c9:	8b 45 fc             	mov    eax,DWORD PTR [rbp-0x4]
   2fc4c17cc:	2d 7e 3e 4e 9f       	sub    eax,0x9f4e3e7e
   2fc4c17d1:	0f 84 57 31 00 00    	je     2fc4c492e <DllRegisterServer+0x338e>
   2fc4c17d7:	e9 00 00 00 00       	jmp    2fc4c17dc <DllRegisterServer+0x23c>
   2fc4c17dc:	8b 45 fc             	mov    eax,DWORD PTR [rbp-0x4]
   2fc4c17df:	2d 4d dc c2 a0       	sub    eax,0xa0c2dc4d
   2fc4c17e4:	0f 84 4f 42 00 00    	je     2fc4c5a39 <DllRegisterServer+0x4499>
   2fc4c17ea:	e9 00 00 00 00       	jmp    2fc4c17ef <DllRegisterServer+0x24f>
   2fc4c17ef:	8b 45 fc             	mov    eax,DWORD PTR [rbp-0x4]
   2fc4c17f2:	2d 2c df e0 a0       	sub    eax,0xa0e0df2c
   2fc4c17f7:	0f 84 31 51 00 00    	je     2fc4c692e <DllRegisterServer+0x538e>
   2fc4c17fd:	e9 00 00 00 00       	jmp    2fc4c1802 <DllRegisterServer+0x262>
   2fc4c1802:	8b 45 fc             	mov    eax,DWORD PTR [rbp-0x4]
   2fc4c1805:	2d dd db 45 a1       	sub    eax,0xa145dbdd
   2fc4c180a:	0f 84 58 3b 00 00    	je     2fc4c5368 <DllRegisterServer+0x3dc8>
   2fc4c1810:	e9 00 00 00 00       	jmp    2fc4c1815 <DllRegisterServer+0x275>
   2fc4c1815:	8b 45 fc             	mov    eax,DWORD PTR [rbp-0x4]
   2fc4c1818:	2d d7 83 fb a2       	sub    eax,0xa2fb83d7
   2fc4c181d:	0f 84 d1 3e 00 00    	je     2fc4c56f4 <DllRegisterServer+0x4154>
   2fc4c1823:	e9 00 00 00 00       	jmp    2fc4c1828 <DllRegisterServer+0x288>
   2fc4c1828:	8b 45 fc             	mov    eax,DWORD PTR [rbp-0x4]
   2fc4c182b:	2d 9e 5d b4 a5       	sub    eax,0xa5b45d9e
   2fc4c1830:	0f 84 be 52 00 00    	je     2fc4c6af4 <DllRegisterServer+0x5554>
   2fc4c1836:	e9 00 00 00 00       	jmp    2fc4c183b <DllRegisterServer+0x29b>
   2fc4c183b:	8b 45 fc             	mov    eax,DWORD PTR [rbp-0x4]
   2fc4c183e:	2d 19 7c 5d a8       	sub    eax,0xa85d7c19
   2fc4c1843:	0f 84 8e 52 00 00    	je     2fc4c6ad7 <DllRegisterServer+0x5537>
   2fc4c1849:	e9 00 00 00 00       	jmp    2fc4c184e <DllRegisterServer+0x2ae>
   2fc4c184e:	8b 45 fc             	mov    eax,DWORD PTR [rbp-0x4]
   2fc4c1851:	2d b9 b9 3f a9       	sub    eax,0xa93fb9b9
   2fc4c1856:	0f 84 1b 1f 00 00    	je     2fc4c3777 <DllRegisterServer+0x21d7>
   2fc4c185c:	e9 00 00 00 00       	jmp    2fc4c1861 <DllRegisterServer+0x2c1>
   2fc4c1861:	8b 45 fc             	mov    eax,DWORD PTR [rbp-0x4]
   2fc4c1864:	2d f2 64 b3 ab       	sub    eax,0xabb364f2
   2fc4c1869:	0f 84 8c 51 00 00    	je     2fc4c69fb <DllRegisterServer+0x545b>
   2fc4c186f:	e9 00 00 00 00       	jmp    2fc4c1874 <DllRegisterServer+0x2d4>
   2fc4c1874:	8b 45 fc             	mov    eax,DWORD PTR [rbp-0x4]
   2fc4c1877:	2d a9 07 05 ad       	sub    eax,0xad0507a9
   2fc4c187c:	0f 84 1e 3b 00 00    	je     2fc4c53a0 <DllRegisterServer+0x3e00>
   2fc4c1882:	e9 00 00 00 00       	jmp    2fc4c1887 <DllRegisterServer+0x2e7>
   2fc4c1887:	8b 45 fc             	mov    eax,DWORD PTR [rbp-0x4]
   2fc4c188a:	2d 8f 01 ec ad       	sub    eax,0xadec018f
   2fc4c188f:	0f 84 62 27 00 00    	je     2fc4c3ff7 <DllRegisterServer+0x2a57>
   2fc4c1895:	e9 00 00 00 00       	jmp    2fc4c189a <DllRegisterServer+0x2fa>
   2fc4c189a:	8b 45 fc             	mov    eax,DWORD PTR [rbp-0x4]
   2fc4c189d:	2d 7f 66 2b af       	sub    eax,0xaf2b667f
   2fc4c18a2:	0f 84 a1 26 00 00    	je     2fc4c3f49 <DllRegisterServer+0x29a9>
   2fc4c18a8:	e9 00 00 00 00       	jmp    2fc4c18ad <DllRegisterServer+0x30d>
   2fc4c18ad:	8b 45 fc             	mov    eax,DWORD PTR [rbp-0x4]
   2fc4c18b0:	2d ca 9e 89 b0       	sub    eax,0xb0899eca
   2fc4c18b5:	0f 84 f8 27 00 00    	je     2fc4c40b3 <DllRegisterServer+0x2b13>
   2fc4c18bb:	e9 00 00 00 00       	jmp    2fc4c18c0 <DllRegisterServer+0x320>
   2fc4c18c0:	8b 45 fc             	mov    eax,DWORD PTR [rbp-0x4]
   2fc4c18c3:	2d 2f a3 eb b0       	sub    eax,0xb0eba32f
   2fc4c18c8:	0f 84 93 50 00 00    	je     2fc4c6961 <DllRegisterServer+0x53c1>
   2fc4c18ce:	e9 00 00 00 00       	jmp    2fc4c18d3 <DllRegisterServer+0x333>
   2fc4c18d3:	8b 45 fc             	mov    eax,DWORD PTR [rbp-0x4]
   2fc4c18d6:	2d 9c 13 2f b1       	sub    eax,0xb12f139c
   2fc4c18db:	0f 84 cc 40 00 00    	je     2fc4c59ad <DllRegisterServer+0x440d>
   2fc4c18e1:	e9 00 00 00 00       	jmp    2fc4c18e6 <DllRegisterServer+0x346>
   2fc4c18e6:	8b 45 fc             	mov    eax,DWORD PTR [rbp-0x4]
   2fc4c18e9:	2d 0b 19 86 b5       	sub    eax,0xb586190b
   2fc4c18ee:	0f 84 02 1e 00 00    	je     2fc4c36f6 <DllRegisterServer+0x2156>
   2fc4c18f4:	e9 00 00 00 00       	jmp    2fc4c18f9 <DllRegisterServer+0x359>
   2fc4c18f9:	8b 45 fc             	mov    eax,DWORD PTR [rbp-0x4]
   2fc4c18fc:	2d fb c7 1a b6       	sub    eax,0xb61ac7fb
   2fc4c1901:	0f 84 1a 2f 00 00    	je     2fc4c4821 <DllRegisterServer+0x3281>
   2fc4c1907:	e9 00 00 00 00       	jmp    2fc4c190c <DllRegisterServer+0x36c>
   2fc4c190c:	8b 45 fc             	mov    eax,DWORD PTR [rbp-0x4]
   2fc4c190f:	2d 22 b4 2d b6       	sub    eax,0xb62db422
   2fc4c1914:	0f 84 2c 33 00 00    	je     2fc4c4c46 <DllRegisterServer+0x36a6>
   2fc4c191a:	e9 00 00 00 00       	jmp    2fc4c191f <DllRegisterServer+0x37f>
   2fc4c191f:	8b 45 fc             	mov    eax,DWORD PTR [rbp-0x4]
   2fc4c1922:	2d 33 5a 4b b6       	sub    eax,0xb64b5a33
   2fc4c1927:	0f 84 19 51 00 00    	je     2fc4c6a46 <DllRegisterServer+0x54a6>
   2fc4c192d:	e9 00 00 00 00       	jmp    2fc4c1932 <DllRegisterServer+0x392>
   2fc4c1932:	8b 45 fc             	mov    eax,DWORD PTR [rbp-0x4]
   2fc4c1935:	2d 59 83 2f b7       	sub    eax,0xb72f8359
   2fc4c193a:	0f 84 63 1f 00 00    	je     2fc4c38a3 <DllRegisterServer+0x2303>
   2fc4c1940:	e9 00 00 00 00       	jmp    2fc4c1945 <DllRegisterServer+0x3a5>
   2fc4c1945:	8b 45 fc             	mov    eax,DWORD PTR [rbp-0x4]
   2fc4c1948:	2d 5d 3e 5c ba       	sub    eax,0xba5c3e5d
   2fc4c194d:	0f 84 60 1e 00 00    	je     2fc4c37b3 <DllRegisterServer+0x2213>
   2fc4c1953:	e9 00 00 00 00       	jmp    2fc4c1958 <DllRegisterServer+0x3b8>
   2fc4c1958:	8b 45 fc             	mov    eax,DWORD PTR [rbp-0x4]
   2fc4c195b:	2d 3a 06 21 bb       	sub    eax,0xbb21063a
   2fc4c1960:	0f 84 da 1e 00 00    	je     2fc4c3840 <DllRegisterServer+0x22a0>
   2fc4c1966:	e9 00 00 00 00       	jmp    2fc4c196b <DllRegisterServer+0x3cb>
   2fc4c196b:	8b 45 fc             	mov    eax,DWORD PTR [rbp-0x4]
   2fc4c196e:	2d 22 8e 53 bb       	sub    eax,0xbb538e22
   2fc4c1973:	0f 84 c4 51 00 00    	je     2fc4c6b3d <DllRegisterServer+0x559d>
   2fc4c1979:	e9 00 00 00 00       	jmp    2fc4c197e <DllRegisterServer+0x3de>
   2fc4c197e:	8b 45 fc             	mov    eax,DWORD PTR [rbp-0x4]
   2fc4c1981:	2d 42 5a 6d bb       	sub    eax,0xbb6d5a42
   2fc4c1986:	0f 84 48 46 00 00    	je     2fc4c5fd4 <DllRegisterServer+0x4a34>
   2fc4c198c:	e9 00 00 00 00       	jmp    2fc4c1991 <DllRegisterServer+0x3f1>
   2fc4c1991:	8b 45 fc             	mov    eax,DWORD PTR [rbp-0x4]
   2fc4c1994:	2d 50 1d dc bc       	sub    eax,0xbcdc1d50
   2fc4c1999:	0f 84 f2 1d 00 00    	je     2fc4c3791 <DllRegisterServer+0x21f1>
   2fc4c199f:	e9 00 00 00 00       	jmp    2fc4c19a4 <DllRegisterServer+0x404>
   2fc4c19a4:	8b 45 fc             	mov    eax,DWORD PTR [rbp-0x4]
   2fc4c19a7:	2d f0 c6 37 bf       	sub    eax,0xbf37c6f0
   2fc4c19ac:	0f 84 9c 39 00 00    	je     2fc4c534e <DllRegisterServer+0x3dae>
   2fc4c19b2:	e9 00 00 00 00       	jmp    2fc4c19b7 <DllRegisterServer+0x417>
   2fc4c19b7:	8b 45 fc             	mov    eax,DWORD PTR [rbp-0x4]
   2fc4c19ba:	2d 90 4e 3f bf       	sub    eax,0xbf3f4e90
   2fc4c19bf:	0f 84 f3 51 00 00    	je     2fc4c6bb8 <DllRegisterServer+0x5618>
   2fc4c19c5:	e9 00 00 00 00       	jmp    2fc4c19ca <DllRegisterServer+0x42a>
   2fc4c19ca:	8b 45 fc             	mov    eax,DWORD PTR [rbp-0x4]
   2fc4c19cd:	2d 14 6e f8 c0       	sub    eax,0xc0f86e14
   2fc4c19d2:	0f 84 1d 33 00 00    	je     2fc4c4cf5 <DllRegisterServer+0x3755>
   2fc4c19d8:	e9 00 00 00 00       	jmp    2fc4c19dd <DllRegisterServer+0x43d>
   2fc4c19dd:	8b 45 fc             	mov    eax,DWORD PTR [rbp-0x4]
   2fc4c19e0:	2d be 0a ab c1       	sub    eax,0xc1ab0abe
   2fc4c19e5:	0f 84 19 2a 00 00    	je     2fc4c4404 <DllRegisterServer+0x2e64>
   2fc4c19eb:	e9 00 00 00 00       	jmp    2fc4c19f0 <DllRegisterServer+0x450>
   2fc4c19f0:	8b 45 fc             	mov    eax,DWORD PTR [rbp-0x4]
   2fc4c19f3:	2d b2 df e8 c1       	sub    eax,0xc1e8dfb2
   2fc4c19f8:	0f 84 75 26 00 00    	je     2fc4c4073 <DllRegisterServer+0x2ad3>
   2fc4c19fe:	e9 00 00 00 00       	jmp    2fc4c1a03 <DllRegisterServer+0x463>
   2fc4c1a03:	8b 45 fc             	mov    eax,DWORD PTR [rbp-0x4]
   2fc4c1a06:	2d 95 5b 54 c4       	sub    eax,0xc4545b95
   2fc4c1a0b:	0f 84 28 15 00 00    	je     2fc4c2f39 <DllRegisterServer+0x1999>
   2fc4c1a11:	e9 00 00 00 00       	jmp    2fc4c1a16 <DllRegisterServer+0x476>
   2fc4c1a16:	8b 45 fc             	mov    eax,DWORD PTR [rbp-0x4]
   2fc4c1a19:	2d 2a 4f 72 c6       	sub    eax,0xc6724f2a
   2fc4c1a1e:	0f 84 7b 2d 00 00    	je     2fc4c479f <DllRegisterServer+0x31ff>
   2fc4c1a24:	e9 00 00 00 00       	jmp    2fc4c1a29 <DllRegisterServer+0x489>
   2fc4c1a29:	8b 45 fc             	mov    eax,DWORD PTR [rbp-0x4]
   2fc4c1a2c:	2d 5a be a2 c7       	sub    eax,0xc7a2be5a
   2fc4c1a31:	0f 84 f9 51 00 00    	je     2fc4c6c30 <DllRegisterServer+0x5690>
   2fc4c1a37:	e9 00 00 00 00       	jmp    2fc4c1a3c <DllRegisterServer+0x49c>
   2fc4c1a3c:	8b 45 fc             	mov    eax,DWORD PTR [rbp-0x4]
   2fc4c1a3f:	2d 93 1f b7 c7       	sub    eax,0xc7b71f93
   2fc4c1a44:	0f 84 2b 41 00 00    	je     2fc4c5b75 <DllRegisterServer+0x45d5>
   2fc4c1a4a:	e9 00 00 00 00       	jmp    2fc4c1a4f <DllRegisterServer+0x4af>
   2fc4c1a4f:	8b 45 fc             	mov    eax,DWORD PTR [rbp-0x4]
   2fc4c1a52:	2d b1 c4 ba c8       	sub    eax,0xc8bac4b1
   2fc4c1a57:	0f 84 a2 28 00 00    	je     2fc4c42ff <DllRegisterServer+0x2d5f>
   2fc4c1a5d:	e9 00 00 00 00       	jmp    2fc4c1a62 <DllRegisterServer+0x4c2>
   2fc4c1a62:	8b 45 fc             	mov    eax,DWORD PTR [rbp-0x4]
   2fc4c1a65:	2d 23 0f 51 c9       	sub    eax,0xc9510f23
   2fc4c1a6a:	0f 84 3d 1b 00 00    	je     2fc4c35ad <DllRegisterServer+0x200d>
   2fc4c1a70:	e9 00 00 00 00       	jmp    2fc4c1a75 <DllRegisterServer+0x4d5>
   2fc4c1a75:	8b 45 fc             	mov    eax,DWORD PTR [rbp-0x4]
   2fc4c1a78:	2d e0 57 74 c9       	sub    eax,0xc97457e0
   2fc4c1a7d:	0f 84 3f 41 00 00    	je     2fc4c5bc2 <DllRegisterServer+0x4622>
   2fc4c1a83:	e9 00 00 00 00       	jmp    2fc4c1a88 <DllRegisterServer+0x4e8>
   2fc4c1a88:	8b 45 fc             	mov    eax,DWORD PTR [rbp-0x4]
   2fc4c1a8b:	2d 51 20 ea c9       	sub    eax,0xc9ea2051
   2fc4c1a90:	0f 84 11 1d 00 00    	je     2fc4c37a7 <DllRegisterServer+0x2207>
   2fc4c1a96:	e9 00 00 00 00       	jmp    2fc4c1a9b <DllRegisterServer+0x4fb>
   2fc4c1a9b:	8b 45 fc             	mov    eax,DWORD PTR [rbp-0x4]
   2fc4c1a9e:	2d da ab 25 ca       	sub    eax,0xca25abda
   2fc4c1aa3:	0f 84 99 4d 00 00    	je     2fc4c6842 <DllRegisterServer+0x52a2>
   2fc4c1aa9:	e9 00 00 00 00       	jmp    2fc4c1aae <DllRegisterServer+0x50e>
   2fc4c1aae:	8b 45 fc             	mov    eax,DWORD PTR [rbp-0x4]
   2fc4c1ab1:	2d 08 ab ce ca       	sub    eax,0xcaceab08
   2fc4c1ab6:	0f 84 23 4d 00 00    	je     2fc4c67df <DllRegisterServer+0x523f>
   2fc4c1abc:	e9 00 00 00 00       	jmp    2fc4c1ac1 <DllRegisterServer+0x521>
   2fc4c1ac1:	8b 45 fc             	mov    eax,DWORD PTR [rbp-0x4]
   2fc4c1ac4:	2d 80 20 55 cb       	sub    eax,0xcb552080
   2fc4c1ac9:	0f 84 48 1e 00 00    	je     2fc4c3917 <DllRegisterServer+0x2377>
   2fc4c1acf:	e9 00 00 00 00       	jmp    2fc4c1ad4 <DllRegisterServer+0x534>
   2fc4c1ad4:	8b 45 fc             	mov    eax,DWORD PTR [rbp-0x4]
   2fc4c1ad7:	2d cd f8 57 cb       	sub    eax,0xcb57f8cd
   2fc4c1adc:	0f 84 59 25 00 00    	je     2fc4c403b <DllRegisterServer+0x2a9b>
   2fc4c1ae2:	e9 00 00 00 00       	jmp    2fc4c1ae7 <DllRegisterServer+0x547>
   2fc4c1ae7:	8b 45 fc             	mov    eax,DWORD PTR [rbp-0x4]
   2fc4c1aea:	2d 42 79 b7 cb       	sub    eax,0xcbb77942
   2fc4c1aef:	0f 84 f0 27 00 00    	je     2fc4c42e5 <DllRegisterServer+0x2d45>
   2fc4c1af5:	e9 00 00 00 00       	jmp    2fc4c1afa <DllRegisterServer+0x55a>
   2fc4c1afa:	8b 45 fc             	mov    eax,DWORD PTR [rbp-0x4]
   2fc4c1afd:	2d 1c 36 a2 cd       	sub    eax,0xcda2361c
   2fc4c1b02:	0f 84 d3 36 00 00    	je     2fc4c51db <DllRegisterServer+0x3c3b>
   2fc4c1b08:	e9 00 00 00 00       	jmp    2fc4c1b0d <DllRegisterServer+0x56d>
   2fc4c1b0d:	8b 45 fc             	mov    eax,DWORD PTR [rbp-0x4]
   2fc4c1b10:	2d a5 6b c6 ce       	sub    eax,0xcec66ba5
   2fc4c1b15:	0f 84 76 3d 00 00    	je     2fc4c5891 <DllRegisterServer+0x42f1>
   2fc4c1b1b:	e9 00 00 00 00       	jmp    2fc4c1b20 <DllRegisterServer+0x580>
   2fc4c1b20:	8b 45 fc             	mov    eax,DWORD PTR [rbp-0x4]
   2fc4c1b23:	2d f3 82 e2 ce       	sub    eax,0xcee282f3
   2fc4c1b28:	0f 84 39 51 00 00    	je     2fc4c6c67 <DllRegisterServer+0x56c7>
   2fc4c1b2e:	e9 00 00 00 00       	jmp    2fc4c1b33 <DllRegisterServer+0x593>
   2fc4c1b33:	8b 45 fc             	mov    eax,DWORD PTR [rbp-0x4]
   2fc4c1b36:	2d 38 9c ea cf       	sub    eax,0xcfea9c38
   2fc4c1b3b:	0f 84 75 13 00 00    	je     2fc4c2eb6 <DllRegisterServer+0x1916>
   2fc4c1b41:	e9 00 00 00 00       	jmp    2fc4c1b46 <DllRegisterServer+0x5a6>
   2fc4c1b46:	8b 45 fc             	mov    eax,DWORD PTR [rbp-0x4]
   2fc4c1b49:	2d ea cd d7 d3       	sub    eax,0xd3d7cdea
   2fc4c1b4e:	0f 84 df 2e 00 00    	je     2fc4c4a33 <DllRegisterServer+0x3493>
   2fc4c1b54:	e9 00 00 00 00       	jmp    2fc4c1b59 <DllRegisterServer+0x5b9>
   2fc4c1b59:	8b 45 fc             	mov    eax,DWORD PTR [rbp-0x4]
   2fc4c1b5c:	2d 6b 6e a3 d4       	sub    eax,0xd4a36e6b
   2fc4c1b61:	0f 84 42 4e 00 00    	je     2fc4c69a9 <DllRegisterServer+0x5409>
   2fc4c1b67:	e9 00 00 00 00       	jmp    2fc4c1b6c <DllRegisterServer+0x5cc>
   2fc4c1b6c:	8b 45 fc             	mov    eax,DWORD PTR [rbp-0x4]
   2fc4c1b6f:	2d fd 09 03 d5       	sub    eax,0xd50309fd
   2fc4c1b74:	0f 84 8f 30 00 00    	je     2fc4c4c09 <DllRegisterServer+0x3669>
   2fc4c1b7a:	e9 00 00 00 00       	jmp    2fc4c1b7f <DllRegisterServer+0x5df>
   2fc4c1b7f:	8b 45 fc             	mov    eax,DWORD PTR [rbp-0x4]
   2fc4c1b82:	2d 75 19 7b d6       	sub    eax,0xd67b1975
   2fc4c1b87:	0f 84 13 32 00 00    	je     2fc4c4da0 <DllRegisterServer+0x3800>
   2fc4c1b8d:	e9 00 00 00 00       	jmp    2fc4c1b92 <DllRegisterServer+0x5f2>
   2fc4c1b92:	8b 45 fc             	mov    eax,DWORD PTR [rbp-0x4]
   2fc4c1b95:	2d dd de 93 d6       	sub    eax,0xd693dedd
   2fc4c1b9a:	0f 84 92 3a 00 00    	je     2fc4c5632 <DllRegisterServer+0x4092>
   2fc4c1ba0:	e9 00 00 00 00       	jmp    2fc4c1ba5 <DllRegisterServer+0x605>
   2fc4c1ba5:	8b 45 fc             	mov    eax,DWORD PTR [rbp-0x4]
   2fc4c1ba8:	2d e7 26 e7 d9       	sub    eax,0xd9e726e7
   2fc4c1bad:	0f 84 6d 40 00 00    	je     2fc4c5c20 <DllRegisterServer+0x4680>
   2fc4c1bb3:	e9 00 00 00 00       	jmp    2fc4c1bb8 <DllRegisterServer+0x618>
   2fc4c1bb8:	8b 45 fc             	mov    eax,DWORD PTR [rbp-0x4]
   2fc4c1bbb:	2d b6 e6 92 db       	sub    eax,0xdb92e6b6
   2fc4c1bc0:	0f 84 60 3a 00 00    	je     2fc4c5626 <DllRegisterServer+0x4086>
   2fc4c1bc6:	e9 00 00 00 00       	jmp    2fc4c1bcb <DllRegisterServer+0x62b>
   2fc4c1bcb:	8b 45 fc             	mov    eax,DWORD PTR [rbp-0x4]
   2fc4c1bce:	2d c5 12 d1 db       	sub    eax,0xdbd112c5
   2fc4c1bd3:	0f 84 0a 1c 00 00    	je     2fc4c37e3 <DllRegisterServer+0x2243>
   2fc4c1bd9:	e9 00 00 00 00       	jmp    2fc4c1bde <DllRegisterServer+0x63e>
   2fc4c1bde:	8b 45 fc             	mov    eax,DWORD PTR [rbp-0x4]
   2fc4c1be1:	2d 42 0b 3d de       	sub    eax,0xde3d0b42
   2fc4c1be6:	0f 84 d2 1c 00 00    	je     2fc4c38be <DllRegisterServer+0x231e>
   2fc4c1bec:	e9 00 00 00 00       	jmp    2fc4c1bf1 <DllRegisterServer+0x651>
   2fc4c1bf1:	8b 45 fc             	mov    eax,DWORD PTR [rbp-0x4]
   2fc4c1bf4:	2d cc 94 16 e1       	sub    eax,0xe11694cc
   2fc4c1bf9:	0f 84 e8 27 00 00    	je     2fc4c43e7 <DllRegisterServer+0x2e47>
   2fc4c1bff:	e9 00 00 00 00       	jmp    2fc4c1c04 <DllRegisterServer+0x664>
   2fc4c1c04:	8b 45 fc             	mov    eax,DWORD PTR [rbp-0x4]
   2fc4c1c07:	2d 05 82 8d e1       	sub    eax,0xe18d8205
   2fc4c1c0c:	0f 84 0c 13 00 00    	je     2fc4c2f1e <DllRegisterServer+0x197e>
   2fc4c1c12:	e9 00 00 00 00       	jmp    2fc4c1c17 <DllRegisterServer+0x677>
   2fc4c1c17:	8b 45 fc             	mov    eax,DWORD PTR [rbp-0x4]
   2fc4c1c1a:	2d 29 78 a3 e2       	sub    eax,0xe2a37829
   2fc4c1c1f:	0f 84 fc 2a 00 00    	je     2fc4c4721 <DllRegisterServer+0x3181>
   2fc4c1c25:	e9 00 00 00 00       	jmp    2fc4c1c2a <DllRegisterServer+0x68a>
   2fc4c1c2a:	8b 45 fc             	mov    eax,DWORD PTR [rbp-0x4]
   2fc4c1c2d:	2d 1b 44 29 e3       	sub    eax,0xe329441b
   2fc4c1c32:	0f 84 24 4c 00 00    	je     2fc4c685c <DllRegisterServer+0x52bc>
   2fc4c1c38:	e9 00 00 00 00       	jmp    2fc4c1c3d <DllRegisterServer+0x69d>
   2fc4c1c3d:	8b 45 fc             	mov    eax,DWORD PTR [rbp-0x4]
   2fc4c1c40:	2d 3d cc 9d e3       	sub    eax,0xe39dcc3d
   2fc4c1c45:	0f 84 b1 4b 00 00    	je     2fc4c67fc <DllRegisterServer+0x525c>
   2fc4c1c4b:	e9 00 00 00 00       	jmp    2fc4c1c50 <DllRegisterServer+0x6b0>
   2fc4c1c50:	8b 45 fc             	mov    eax,DWORD PTR [rbp-0x4]
   2fc4c1c53:	2d 5e cd 1c e5       	sub    eax,0xe51ccd5e
   2fc4c1c58:	0f 84 b4 30 00 00    	je     2fc4c4d12 <DllRegisterServer+0x3772>
   2fc4c1c5e:	e9 00 00 00 00       	jmp    2fc4c1c63 <DllRegisterServer+0x6c3>
   2fc4c1c63:	8b 45 fc             	mov    eax,DWORD PTR [rbp-0x4]
   2fc4c1c66:	2d a1 70 34 e5       	sub    eax,0xe53470a1
   2fc4c1c6b:	0f 84 54 4b 00 00    	je     2fc4c67c5 <DllRegisterServer+0x5225>
   2fc4c1c71:	e9 00 00 00 00       	jmp    2fc4c1c76 <DllRegisterServer+0x6d6>
   2fc4c1c76:	8b 45 fc             	mov    eax,DWORD PTR [rbp-0x4]
   2fc4c1c79:	2d fa ce 33 e6       	sub    eax,0xe633cefa
   2fc4c1c7e:	0f 84 2a 4e 00 00    	je     2fc4c6aae <DllRegisterServer+0x550e>
   2fc4c1c84:	e9 00 00 00 00       	jmp    2fc4c1c89 <DllRegisterServer+0x6e9>
   2fc4c1c89:	8b 45 fc             	mov    eax,DWORD PTR [rbp-0x4]
   2fc4c1c8c:	2d 78 df 0e ea       	sub    eax,0xea0edf78
   2fc4c1c91:	0f 84 06 2d 00 00    	je     2fc4c499d <DllRegisterServer+0x33fd>
   2fc4c1c97:	e9 00 00 00 00       	jmp    2fc4c1c9c <DllRegisterServer+0x6fc>
   2fc4c1c9c:	8b 45 fc             	mov    eax,DWORD PTR [rbp-0x4]
   2fc4c1c9f:	2d 66 8a b4 eb       	sub    eax,0xebb48a66
   2fc4c1ca4:	0f 84 28 28 00 00    	je     2fc4c44d2 <DllRegisterServer+0x2f32>
   2fc4c1caa:	e9 00 00 00 00       	jmp    2fc4c1caf <DllRegisterServer+0x70f>
   2fc4c1caf:	8b 45 fc             	mov    eax,DWORD PTR [rbp-0x4]
   2fc4c1cb2:	2d e6 68 a8 ed       	sub    eax,0xeda868e6
   2fc4c1cb7:	0f 84 8b 0e 00 00    	je     2fc4c2b48 <DllRegisterServer+0x15a8>
   2fc4c1cbd:	e9 00 00 00 00       	jmp    2fc4c1cc2 <DllRegisterServer+0x722>
   2fc4c1cc2:	8b 45 fc             	mov    eax,DWORD PTR [rbp-0x4]
   2fc4c1cc5:	2d c2 49 6a ef       	sub    eax,0xef6a49c2
   2fc4c1cca:	0f 84 95 2a 00 00    	je     2fc4c4765 <DllRegisterServer+0x31c5>
   2fc4c1cd0:	e9 00 00 00 00       	jmp    2fc4c1cd5 <DllRegisterServer+0x735>
   2fc4c1cd5:	8b 45 fc             	mov    eax,DWORD PTR [rbp-0x4]
   2fc4c1cd8:	2d 1c ca 9c f0       	sub    eax,0xf09cca1c
   2fc4c1cdd:	0f 84 67 39 00 00    	je     2fc4c564a <DllRegisterServer+0x40aa>
   2fc4c1ce3:	e9 00 00 00 00       	jmp    2fc4c1ce8 <DllRegisterServer+0x748>
   2fc4c1ce8:	8b 45 fc             	mov    eax,DWORD PTR [rbp-0x4]
   2fc4c1ceb:	2d 4b 99 d3 f0       	sub    eax,0xf0d3994b
   2fc4c1cf0:	0f 84 3c 34 00 00    	je     2fc4c5132 <DllRegisterServer+0x3b92>
   2fc4c1cf6:	e9 00 00 00 00       	jmp    2fc4c1cfb <DllRegisterServer+0x75b>
   2fc4c1cfb:	8b 45 fc             	mov    eax,DWORD PTR [rbp-0x4]
   2fc4c1cfe:	2d 04 eb c1 f2       	sub    eax,0xf2c1eb04
   2fc4c1d03:	0f 84 79 2c 00 00    	je     2fc4c4982 <DllRegisterServer+0x33e2>
   2fc4c1d09:	e9 00 00 00 00       	jmp    2fc4c1d0e <DllRegisterServer+0x76e>
   2fc4c1d0e:	8b 45 fc             	mov    eax,DWORD PTR [rbp-0x4]
   2fc4c1d11:	2d 21 76 e6 f2       	sub    eax,0xf2e67621
   2fc4c1d16:	0f 84 9b 2e 00 00    	je     2fc4c4bb7 <DllRegisterServer+0x3617>
   2fc4c1d1c:	e9 00 00 00 00       	jmp    2fc4c1d21 <DllRegisterServer+0x781>
   2fc4c1d21:	8b 45 fc             	mov    eax,DWORD PTR [rbp-0x4]
   2fc4c1d24:	2d 5b 3e a1 f3       	sub    eax,0xf3a13e5b
   2fc4c1d29:	0f 84 2f 3a 00 00    	je     2fc4c575e <DllRegisterServer+0x41be>
   2fc4c1d2f:	e9 00 00 00 00       	jmp    2fc4c1d34 <DllRegisterServer+0x794>
   2fc4c1d34:	8b 45 fc             	mov    eax,DWORD PTR [rbp-0x4]
   2fc4c1d37:	2d 06 7e ab f3       	sub    eax,0xf3ab7e06
   2fc4c1d3c:	0f 84 e4 1a 00 00    	je     2fc4c3826 <DllRegisterServer+0x2286>
   2fc4c1d42:	e9 00 00 00 00       	jmp    2fc4c1d47 <DllRegisterServer+0x7a7>
   2fc4c1d47:	8b 45 fc             	mov    eax,DWORD PTR [rbp-0x4]
   2fc4c1d4a:	2d c6 8f 54 f4       	sub    eax,0xf4548fc6
   2fc4c1d4f:	0f 84 60 19 00 00    	je     2fc4c36b5 <DllRegisterServer+0x2115>
   2fc4c1d55:	e9 00 00 00 00       	jmp    2fc4c1d5a <DllRegisterServer+0x7ba>
   2fc4c1d5a:	8b 45 fc             	mov    eax,DWORD PTR [rbp-0x4]
   2fc4c1d5d:	2d 6c 4b e8 f4       	sub    eax,0xf4e84b6c
   2fc4c1d62:	0f 84 21 3d 00 00    	je     2fc4c5a89 <DllRegisterServer+0x44e9>
   2fc4c1d68:	e9 00 00 00 00       	jmp    2fc4c1d6d <DllRegisterServer+0x7cd>
   2fc4c1d6d:	8b 45 fc             	mov    eax,DWORD PTR [rbp-0x4]
   2fc4c1d70:	2d 40 05 05 f5       	sub    eax,0xf5050540
   2fc4c1d75:	0f 84 c6 0f 00 00    	je     2fc4c2d41 <DllRegisterServer+0x17a1>
   2fc4c1d7b:	e9 00 00 00 00       	jmp    2fc4c1d80 <DllRegisterServer+0x7e0>
   2fc4c1d80:	8b 45 fc             	mov    eax,DWORD PTR [rbp-0x4]
   2fc4c1d83:	2d 0f d2 2f f6       	sub    eax,0xf62fd20f
   2fc4c1d88:	0f 84 c9 3e 00 00    	je     2fc4c5c57 <DllRegisterServer+0x46b7>
   2fc4c1d8e:	e9 00 00 00 00       	jmp    2fc4c1d93 <DllRegisterServer+0x7f3>
   2fc4c1d93:	8b 45 fc             	mov    eax,DWORD PTR [rbp-0x4]
   2fc4c1d96:	2d c4 d6 3c f6       	sub    eax,0xf63cd6c4
   2fc4c1d9b:	0f 84 37 1b 00 00    	je     2fc4c38d8 <DllRegisterServer+0x2338>
   2fc4c1da1:	e9 00 00 00 00       	jmp    2fc4c1da6 <DllRegisterServer+0x806>
   2fc4c1da6:	8b 45 fc             	mov    eax,DWORD PTR [rbp-0x4]
   2fc4c1da9:	2d c7 80 83 f7       	sub    eax,0xf78380c7
   2fc4c1dae:	0f 84 7a 3a 00 00    	je     2fc4c582e <DllRegisterServer+0x428e>
   2fc4c1db4:	e9 00 00 00 00       	jmp    2fc4c1db9 <DllRegisterServer+0x819>
   2fc4c1db9:	8b 45 fc             	mov    eax,DWORD PTR [rbp-0x4]
   2fc4c1dbc:	2d 82 f8 ca f8       	sub    eax,0xf8caf882
   2fc4c1dc1:	0f 84 c6 3b 00 00    	je     2fc4c598d <DllRegisterServer+0x43ed>
   2fc4c1dc7:	e9 00 00 00 00       	jmp    2fc4c1dcc <DllRegisterServer+0x82c>
   2fc4c1dcc:	8b 45 fc             	mov    eax,DWORD PTR [rbp-0x4]
   2fc4c1dcf:	2d 3d cb bb f9       	sub    eax,0xf9bbcb3d
   2fc4c1dd4:	0f 84 3a 42 00 00    	je     2fc4c6014 <DllRegisterServer+0x4a74>
   2fc4c1dda:	e9 00 00 00 00       	jmp    2fc4c1ddf <DllRegisterServer+0x83f>
   2fc4c1ddf:	8b 45 fc             	mov    eax,DWORD PTR [rbp-0x4]
   2fc4c1de2:	2d 49 aa dc f9       	sub    eax,0xf9dcaa49
   2fc4c1de7:	0f 84 fc 3b 00 00    	je     2fc4c59e9 <DllRegisterServer+0x4449>
   2fc4c1ded:	e9 00 00 00 00       	jmp    2fc4c1df2 <DllRegisterServer+0x852>
   2fc4c1df2:	8b 45 fc             	mov    eax,DWORD PTR [rbp-0x4]
   2fc4c1df5:	2d a9 5e d0 fa       	sub    eax,0xfad05ea9
   2fc4c1dfa:	0f 84 df 29 00 00    	je     2fc4c47df <DllRegisterServer+0x323f>
   2fc4c1e00:	e9 00 00 00 00       	jmp    2fc4c1e05 <DllRegisterServer+0x865>
   2fc4c1e05:	8b 45 fc             	mov    eax,DWORD PTR [rbp-0x4]
   2fc4c1e08:	2d d6 3a 28 fb       	sub    eax,0xfb283ad6
   2fc4c1e0d:	0f 84 68 39 00 00    	je     2fc4c577b <DllRegisterServer+0x41db>
   2fc4c1e13:	e9 00 00 00 00       	jmp    2fc4c1e18 <DllRegisterServer+0x878>
   2fc4c1e18:	8b 45 fc             	mov    eax,DWORD PTR [rbp-0x4]
   2fc4c1e1b:	2d 6d 44 4a fb       	sub    eax,0xfb4a446d
   2fc4c1e20:	0f 84 18 38 00 00    	je     2fc4c563e <DllRegisterServer+0x409e>
   2fc4c1e26:	e9 00 00 00 00       	jmp    2fc4c1e2b <DllRegisterServer+0x88b>
   2fc4c1e2b:	8b 45 fc             	mov    eax,DWORD PTR [rbp-0x4]
   2fc4c1e2e:	2d 3e a6 10 fc       	sub    eax,0xfc10a63e
   2fc4c1e33:	0f 84 13 33 00 00    	je     2fc4c514c <DllRegisterServer+0x3bac>
   2fc4c1e39:	e9 00 00 00 00       	jmp    2fc4c1e3e <DllRegisterServer+0x89e>
   2fc4c1e3e:	8b 45 fc             	mov    eax,DWORD PTR [rbp-0x4]
   2fc4c1e41:	2d 3e f9 25 fc       	sub    eax,0xfc25f93e
   2fc4c1e46:	0f 84 51 4a 00 00    	je     2fc4c689d <DllRegisterServer+0x52fd>
   2fc4c1e4c:	e9 00 00 00 00       	jmp    2fc4c1e51 <DllRegisterServer+0x8b1>
   2fc4c1e51:	8b 45 fc             	mov    eax,DWORD PTR [rbp-0x4]
   2fc4c1e54:	2d 87 ab 2c fc       	sub    eax,0xfc2cab87
   2fc4c1e59:	0f 84 99 2b 00 00    	je     2fc4c49f8 <DllRegisterServer+0x3458>
   2fc4c1e5f:	e9 00 00 00 00       	jmp    2fc4c1e64 <DllRegisterServer+0x8c4>
   2fc4c1e64:	8b 45 fc             	mov    eax,DWORD PTR [rbp-0x4]
   2fc4c1e67:	2d 5b fd 1c ff       	sub    eax,0xff1cfd5b
   2fc4c1e6c:	0f 84 a6 2b 00 00    	je     2fc4c4a18 <DllRegisterServer+0x3478>
   2fc4c1e72:	e9 00 00 00 00       	jmp    2fc4c1e77 <DllRegisterServer+0x8d7>
   2fc4c1e77:	8b 45 fc             	mov    eax,DWORD PTR [rbp-0x4]
   2fc4c1e7a:	2d b2 a2 4d 00       	sub    eax,0x4da2b2
   2fc4c1e7f:	0f 84 ec 26 00 00    	je     2fc4c4571 <DllRegisterServer+0x2fd1>
   2fc4c1e85:	e9 00 00 00 00       	jmp    2fc4c1e8a <DllRegisterServer+0x8ea>
   2fc4c1e8a:	8b 45 fc             	mov    eax,DWORD PTR [rbp-0x4]
   2fc4c1e8d:	2d b4 be b6 00       	sub    eax,0xb6beb4
   2fc4c1e92:	0f 84 77 38 00 00    	je     2fc4c570f <DllRegisterServer+0x416f>
   2fc4c1e98:	e9 00 00 00 00       	jmp    2fc4c1e9d <DllRegisterServer+0x8fd>
   2fc4c1e9d:	8b 45 fc             	mov    eax,DWORD PTR [rbp-0x4]
   2fc4c1ea0:	2d 03 3b de 00       	sub    eax,0xde3b03
   2fc4c1ea5:	0f 84 8f 4a 00 00    	je     2fc4c693a <DllRegisterServer+0x539a>
   2fc4c1eab:	e9 00 00 00 00       	jmp    2fc4c1eb0 <DllRegisterServer+0x910>
   2fc4c1eb0:	8b 45 fc             	mov    eax,DWORD PTR [rbp-0x4]
   2fc4c1eb3:	2d a7 53 b7 01       	sub    eax,0x1b753a7
   2fc4c1eb8:	0f 84 5a 26 00 00    	je     2fc4c4518 <DllRegisterServer+0x2f78>
   2fc4c1ebe:	e9 00 00 00 00       	jmp    2fc4c1ec3 <DllRegisterServer+0x923>
   2fc4c1ec3:	8b 45 fc             	mov    eax,DWORD PTR [rbp-0x4]
   2fc4c1ec6:	2d c0 30 93 02       	sub    eax,0x29330c0
   2fc4c1ecb:	0f 84 ed 2e 00 00    	je     2fc4c4dbe <DllRegisterServer+0x381e>
   2fc4c1ed1:	e9 00 00 00 00       	jmp    2fc4c1ed6 <DllRegisterServer+0x936>
   2fc4c1ed6:	8b 45 fc             	mov    eax,DWORD PTR [rbp-0x4]
   2fc4c1ed9:	2d f0 6a 01 03       	sub    eax,0x3016af0
   2fc4c1ede:	0f 84 56 3d 00 00    	je     2fc4c5c3a <DllRegisterServer+0x469a>
   2fc4c1ee4:	e9 00 00 00 00       	jmp    2fc4c1ee9 <DllRegisterServer+0x949>
   2fc4c1ee9:	8b 45 fc             	mov    eax,DWORD PTR [rbp-0x4]
   2fc4c1eec:	2d 17 ee 0d 04       	sub    eax,0x40dee17
   2fc4c1ef1:	0f 84 53 4d 00 00    	je     2fc4c6c4a <DllRegisterServer+0x56aa>
   2fc4c1ef7:	e9 00 00 00 00       	jmp    2fc4c1efc <DllRegisterServer+0x95c>
   2fc4c1efc:	8b 45 fc             	mov    eax,DWORD PTR [rbp-0x4]
   2fc4c1eff:	2d 49 ce 53 05       	sub    eax,0x553ce49
   2fc4c1f04:	0f 84 5e 2a 00 00    	je     2fc4c4968 <DllRegisterServer+0x33c8>
   2fc4c1f0a:	e9 00 00 00 00       	jmp    2fc4c1f0f <DllRegisterServer+0x96f>
   2fc4c1f0f:	8b 45 fc             	mov    eax,DWORD PTR [rbp-0x4]
   2fc4c1f12:	2d 61 69 99 05       	sub    eax,0x5996961
   2fc4c1f17:	0f 84 dc 0d 00 00    	je     2fc4c2cf9 <DllRegisterServer+0x1759>
   2fc4c1f1d:	e9 00 00 00 00       	jmp    2fc4c1f22 <DllRegisterServer+0x982>
   2fc4c1f22:	8b 45 fc             	mov    eax,DWORD PTR [rbp-0x4]
   2fc4c1f25:	2d 11 b6 bf 05       	sub    eax,0x5bfb611
   2fc4c1f2a:	0f 84 58 19 00 00    	je     2fc4c3888 <DllRegisterServer+0x22e8>
   2fc4c1f30:	e9 00 00 00 00       	jmp    2fc4c1f35 <DllRegisterServer+0x995>
   2fc4c1f35:	8b 45 fc             	mov    eax,DWORD PTR [rbp-0x4]
   2fc4c1f38:	2d ab 7e c4 05       	sub    eax,0x5c47eab
   2fc4c1f3d:	0f 84 6a 2b 00 00    	je     2fc4c4aad <DllRegisterServer+0x350d>
   2fc4c1f43:	e9 00 00 00 00       	jmp    2fc4c1f48 <DllRegisterServer+0x9a8>
   2fc4c1f48:	8b 45 fc             	mov    eax,DWORD PTR [rbp-0x4]
   2fc4c1f4b:	2d 93 60 c6 06       	sub    eax,0x6c66093
   2fc4c1f50:	0f 84 4a 25 00 00    	je     2fc4c44a0 <DllRegisterServer+0x2f00>
   2fc4c1f56:	e9 00 00 00 00       	jmp    2fc4c1f5b <DllRegisterServer+0x9bb>
   2fc4c1f5b:	8b 45 fc             	mov    eax,DWORD PTR [rbp-0x4]
   2fc4c1f5e:	2d 22 9b cd 06       	sub    eax,0x6cd9b22
   2fc4c1f63:	0f 84 f6 16 00 00    	je     2fc4c365f <DllRegisterServer+0x20bf>
   2fc4c1f69:	e9 00 00 00 00       	jmp    2fc4c1f6e <DllRegisterServer+0x9ce>
   2fc4c1f6e:	8b 45 fc             	mov    eax,DWORD PTR [rbp-0x4]
   2fc4c1f71:	2d c4 a1 63 07       	sub    eax,0x763a1c4
   2fc4c1f76:	0f 84 4d 2b 00 00    	je     2fc4c4ac9 <DllRegisterServer+0x3529>
   2fc4c1f7c:	e9 00 00 00 00       	jmp    2fc4c1f81 <DllRegisterServer+0x9e1>
   2fc4c1f81:	8b 45 fc             	mov    eax,DWORD PTR [rbp-0x4]
   2fc4c1f84:	2d 52 7c 6d 08       	sub    eax,0x86d7c52
   2fc4c1f89:	0f 84 81 17 00 00    	je     2fc4c3710 <DllRegisterServer+0x2170>
   2fc4c1f8f:	e9 00 00 00 00       	jmp    2fc4c1f94 <DllRegisterServer+0x9f4>
   2fc4c1f94:	8b 45 fc             	mov    eax,DWORD PTR [rbp-0x4]
   2fc4c1f97:	2d 41 35 77 08       	sub    eax,0x8773541
   2fc4c1f9c:	0f 84 8f 40 00 00    	je     2fc4c6031 <DllRegisterServer+0x4a91>
   2fc4c1fa2:	e9 00 00 00 00       	jmp    2fc4c1fa7 <DllRegisterServer+0xa07>
   2fc4c1fa7:	8b 45 fc             	mov    eax,DWORD PTR [rbp-0x4]
   2fc4c1faa:	2d ba 51 10 09       	sub    eax,0x91051ba
   2fc4c1faf:	0f 84 04 20 00 00    	je     2fc4c3fb9 <DllRegisterServer+0x2a19>
   2fc4c1fb5:	e9 00 00 00 00       	jmp    2fc4c1fba <DllRegisterServer+0xa1a>
   2fc4c1fba:	8b 45 fc             	mov    eax,DWORD PTR [rbp-0x4]
   2fc4c1fbd:	2d d7 c1 df 0b       	sub    eax,0xbdfc1d7
   2fc4c1fc2:	0f 84 af 16 00 00    	je     2fc4c3677 <DllRegisterServer+0x20d7>
   2fc4c1fc8:	e9 00 00 00 00       	jmp    2fc4c1fcd <DllRegisterServer+0xa2d>
   2fc4c1fcd:	8b 45 fc             	mov    eax,DWORD PTR [rbp-0x4]
   2fc4c1fd0:	2d 56 bf 1b 0c       	sub    eax,0xc1bbf56
   2fc4c1fd5:	0f 84 8a 36 00 00    	je     2fc4c5665 <DllRegisterServer+0x40c5>
   2fc4c1fdb:	e9 00 00 00 00       	jmp    2fc4c1fe0 <DllRegisterServer+0xa40>
   2fc4c1fe0:	8b 45 fc             	mov    eax,DWORD PTR [rbp-0x4]
   2fc4c1fe3:	2d b1 19 8a 0c       	sub    eax,0xc8a19b1
   2fc4c1fe8:	0f 84 e0 0e 00 00    	je     2fc4c2ece <DllRegisterServer+0x192e>
   2fc4c1fee:	e9 00 00 00 00       	jmp    2fc4c1ff3 <DllRegisterServer+0xa53>
   2fc4c1ff3:	8b 45 fc             	mov    eax,DWORD PTR [rbp-0x4]
   2fc4c1ff6:	2d 52 36 0b 10       	sub    eax,0x100b3652
   2fc4c1ffb:	0f 84 9b 0e 00 00    	je     2fc4c2e9c <DllRegisterServer+0x18fc>
   2fc4c2001:	e9 00 00 00 00       	jmp    2fc4c2006 <DllRegisterServer+0xa66>
   2fc4c2006:	8b 45 fc             	mov    eax,DWORD PTR [rbp-0x4]
   2fc4c2009:	2d 25 6f bb 10       	sub    eax,0x10bb6f25
   2fc4c200e:	0f 84 43 22 00 00    	je     2fc4c4257 <DllRegisterServer+0x2cb7>
   2fc4c2014:	e9 00 00 00 00       	jmp    2fc4c2019 <DllRegisterServer+0xa79>
   2fc4c2019:	8b 45 fc             	mov    eax,DWORD PTR [rbp-0x4]
   2fc4c201c:	2d ce f1 32 11       	sub    eax,0x1132f1ce
   2fc4c2021:	0f 84 72 0c 00 00    	je     2fc4c2c99 <DllRegisterServer+0x16f9>
   2fc4c2027:	e9 00 00 00 00       	jmp    2fc4c202c <DllRegisterServer+0xa8c>
   2fc4c202c:	8b 45 fc             	mov    eax,DWORD PTR [rbp-0x4]
   2fc4c202f:	2d ef 18 82 11       	sub    eax,0x118218ef
   2fc4c2034:	0f 84 49 28 00 00    	je     2fc4c4883 <DllRegisterServer+0x32e3>
   2fc4c203a:	e9 00 00 00 00       	jmp    2fc4c203f <DllRegisterServer+0xa9f>
   2fc4c203f:	8b 45 fc             	mov    eax,DWORD PTR [rbp-0x4]
   2fc4c2042:	2d 0e ec c4 12       	sub    eax,0x12c4ec0e
   2fc4c2047:	0f 84 7e 17 00 00    	je     2fc4c37cb <DllRegisterServer+0x222b>
   2fc4c204d:	e9 00 00 00 00       	jmp    2fc4c2052 <DllRegisterServer+0xab2>
   2fc4c2052:	8b 45 fc             	mov    eax,DWORD PTR [rbp-0x4]
   2fc4c2055:	2d f4 8c 06 13       	sub    eax,0x13068cf4
   2fc4c205a:	0f 84 1a 4b 00 00    	je     2fc4c6b7a <DllRegisterServer+0x55da>
   2fc4c2060:	e9 00 00 00 00       	jmp    2fc4c2065 <DllRegisterServer+0xac5>
   2fc4c2065:	8b 45 fc             	mov    eax,DWORD PTR [rbp-0x4]
   2fc4c2068:	2d 0e e0 7b 14       	sub    eax,0x147be00e
   2fc4c206d:	0f 84 96 31 00 00    	je     2fc4c5209 <DllRegisterServer+0x3c69>
   2fc4c2073:	e9 00 00 00 00       	jmp    2fc4c2078 <DllRegisterServer+0xad8>
   2fc4c2078:	8b 45 fc             	mov    eax,DWORD PTR [rbp-0x4]
   2fc4c207b:	2d 4a e3 81 14       	sub    eax,0x1481e34a
   2fc4c2080:	0f 84 62 3c 00 00    	je     2fc4c5ce8 <DllRegisterServer+0x4748>
   2fc4c2086:	e9 00 00 00 00       	jmp    2fc4c208b <DllRegisterServer+0xaeb>
   2fc4c208b:	8b 45 fc             	mov    eax,DWORD PTR [rbp-0x4]
   2fc4c208e:	2d a0 25 8f 14       	sub    eax,0x148f25a0
   2fc4c2093:	0f 84 84 0d 00 00    	je     2fc4c2e1d <DllRegisterServer+0x187d>
   2fc4c2099:	e9 00 00 00 00       	jmp    2fc4c209e <DllRegisterServer+0xafe>
   2fc4c209e:	8b 45 fc             	mov    eax,DWORD PTR [rbp-0x4]
   2fc4c20a1:	2d 1a 95 6e 15       	sub    eax,0x156e951a
   2fc4c20a6:	0f 84 9a 24 00 00    	je     2fc4c4546 <DllRegisterServer+0x2fa6>
   2fc4c20ac:	e9 00 00 00 00       	jmp    2fc4c20b1 <DllRegisterServer+0xb11>
   2fc4c20b1:	8b 45 fc             	mov    eax,DWORD PTR [rbp-0x4]
   2fc4c20b4:	2d dc 28 6d 16       	sub    eax,0x166d28dc
   2fc4c20b9:	0f 84 a5 38 00 00    	je     2fc4c5964 <DllRegisterServer+0x43c4>
   2fc4c20bf:	e9 00 00 00 00       	jmp    2fc4c20c4 <DllRegisterServer+0xb24>
   2fc4c20c4:	8b 45 fc             	mov    eax,DWORD PTR [rbp-0x4]
   2fc4c20c7:	2d fa c9 72 17       	sub    eax,0x1772c9fa
   2fc4c20cc:	0f 84 c6 15 00 00    	je     2fc4c3698 <DllRegisterServer+0x20f8>
   2fc4c20d2:	e9 00 00 00 00       	jmp    2fc4c20d7 <DllRegisterServer+0xb37>
   2fc4c20d7:	8b 45 fc             	mov    eax,DWORD PTR [rbp-0x4]
   2fc4c20da:	2d 6e 02 5a 18       	sub    eax,0x185a026e
   2fc4c20df:	0f 84 96 48 00 00    	je     2fc4c697b <DllRegisterServer+0x53db>
   2fc4c20e5:	e9 00 00 00 00       	jmp    2fc4c20ea <DllRegisterServer+0xb4a>
   2fc4c20ea:	8b 45 fc             	mov    eax,DWORD PTR [rbp-0x4]
   2fc4c20ed:	2d fd f8 ac 18       	sub    eax,0x18acf8fd
   2fc4c20f2:	0f 84 38 3a 00 00    	je     2fc4c5b30 <DllRegisterServer+0x4590>
   2fc4c20f8:	e9 00 00 00 00       	jmp    2fc4c20fd <DllRegisterServer+0xb5d>
   2fc4c20fd:	8b 45 fc             	mov    eax,DWORD PTR [rbp-0x4]
   2fc4c2100:	2d cc 5e 7a 19       	sub    eax,0x197a5ecc
   2fc4c2105:	0f 84 90 36 00 00    	je     2fc4c579b <DllRegisterServer+0x41fb>
   2fc4c210b:	e9 00 00 00 00       	jmp    2fc4c2110 <DllRegisterServer+0xb70>
   2fc4c2110:	8b 45 fc             	mov    eax,DWORD PTR [rbp-0x4]
   2fc4c2113:	2d d3 e2 24 1a       	sub    eax,0x1a24e2d3
   2fc4c2118:	0f 84 04 31 00 00    	je     2fc4c5222 <DllRegisterServer+0x3c82>
   2fc4c211e:	e9 00 00 00 00       	jmp    2fc4c2123 <DllRegisterServer+0xb83>
   2fc4c2123:	8b 45 fc             	mov    eax,DWORD PTR [rbp-0x4]
   2fc4c2126:	2d 06 fd 01 1b       	sub    eax,0x1b01fd06
   2fc4c212b:	0f 84 32 2b 00 00    	je     2fc4c4c63 <DllRegisterServer+0x36c3>
   2fc4c2131:	e9 00 00 00 00       	jmp    2fc4c2136 <DllRegisterServer+0xb96>
   2fc4c2136:	8b 45 fc             	mov    eax,DWORD PTR [rbp-0x4]
   2fc4c2139:	2d 39 d2 14 1d       	sub    eax,0x1d14d239
   2fc4c213e:	0f 84 92 0b 00 00    	je     2fc4c2cd6 <DllRegisterServer+0x1736>
   2fc4c2144:	e9 00 00 00 00       	jmp    2fc4c2149 <DllRegisterServer+0xba9>
   2fc4c2149:	8b 45 fc             	mov    eax,DWORD PTR [rbp-0x4]
   2fc4c214c:	2d 53 94 b7 1e       	sub    eax,0x1eb79453
   2fc4c2151:	0f 84 97 31 00 00    	je     2fc4c52ee <DllRegisterServer+0x3d4e>
   2fc4c2157:	e9 00 00 00 00       	jmp    2fc4c215c <DllRegisterServer+0xbbc>
   2fc4c215c:	8b 45 fc             	mov    eax,DWORD PTR [rbp-0x4]
   2fc4c215f:	2d 9b cf ce 20       	sub    eax,0x20cecf9b
   2fc4c2164:	0f 84 9f 16 00 00    	je     2fc4c3809 <DllRegisterServer+0x2269>
   2fc4c216a:	e9 00 00 00 00       	jmp    2fc4c216f <DllRegisterServer+0xbcf>
   2fc4c216f:	8b 45 fc             	mov    eax,DWORD PTR [rbp-0x4]
   2fc4c2172:	2d df c3 0d 21       	sub    eax,0x210dc3df
   2fc4c2177:	0f 84 5f 4a 00 00    	je     2fc4c6bdc <DllRegisterServer+0x563c>
   2fc4c217d:	e9 00 00 00 00       	jmp    2fc4c2182 <DllRegisterServer+0xbe2>
   2fc4c2182:	8b 45 fc             	mov    eax,DWORD PTR [rbp-0x4]
   2fc4c2185:	2d 51 d4 66 21       	sub    eax,0x2166d451
   2fc4c218a:	0f 84 75 3b 00 00    	je     2fc4c5d05 <DllRegisterServer+0x4765>
   2fc4c2190:	e9 00 00 00 00       	jmp    2fc4c2195 <DllRegisterServer+0xbf5>
   2fc4c2195:	8b 45 fc             	mov    eax,DWORD PTR [rbp-0x4]
   2fc4c2198:	2d 7c 4d 1c 22       	sub    eax,0x221c4d7c
   2fc4c219d:	0f 84 e0 31 00 00    	je     2fc4c5383 <DllRegisterServer+0x3de3>
   2fc4c21a3:	e9 00 00 00 00       	jmp    2fc4c21a8 <DllRegisterServer+0xc08>
   2fc4c21a8:	8b 45 fc             	mov    eax,DWORD PTR [rbp-0x4]
   2fc4c21ab:	2d 43 a5 5a 22       	sub    eax,0x225aa543
   2fc4c21b0:	0f 84 25 28 00 00    	je     2fc4c49db <DllRegisterServer+0x343b>
   2fc4c21b6:	e9 00 00 00 00       	jmp    2fc4c21bb <DllRegisterServer+0xc1b>
   2fc4c21bb:	8b 45 fc             	mov    eax,DWORD PTR [rbp-0x4]
   2fc4c21be:	2d d2 e1 87 24       	sub    eax,0x2487e1d2
   2fc4c21c3:	0f 84 1c 24 00 00    	je     2fc4c45e5 <DllRegisterServer+0x3045>
   2fc4c21c9:	e9 00 00 00 00       	jmp    2fc4c21ce <DllRegisterServer+0xc2e>
   2fc4c21ce:	8b 45 fc             	mov    eax,DWORD PTR [rbp-0x4]
   2fc4c21d1:	2d 1b 37 86 25       	sub    eax,0x2586371b
   2fc4c21d6:	0f 84 6f 27 00 00    	je     2fc4c494b <DllRegisterServer+0x33ab>
   2fc4c21dc:	e9 00 00 00 00       	jmp    2fc4c21e1 <DllRegisterServer+0xc41>
   2fc4c21e1:	8b 45 fc             	mov    eax,DWORD PTR [rbp-0x4]
   2fc4c21e4:	2d d5 72 2c 29       	sub    eax,0x292c72d5
   2fc4c21e9:	0f 84 be 0b 00 00    	je     2fc4c2dad <DllRegisterServer+0x180d>
   2fc4c21ef:	e9 00 00 00 00       	jmp    2fc4c21f4 <DllRegisterServer+0xc54>
   2fc4c21f4:	8b 45 fc             	mov    eax,DWORD PTR [rbp-0x4]
   2fc4c21f7:	2d 9a 47 51 29       	sub    eax,0x2951479a
   2fc4c21fc:	0f 84 db 1d 00 00    	je     2fc4c3fdd <DllRegisterServer+0x2a3d>
   2fc4c2202:	e9 00 00 00 00       	jmp    2fc4c2207 <DllRegisterServer+0xc67>
   2fc4c2207:	8b 45 fc             	mov    eax,DWORD PTR [rbp-0x4]
   2fc4c220a:	2d cb 95 56 29       	sub    eax,0x295695cb
   2fc4c220f:	0f 84 5f 2b 00 00    	je     2fc4c4d74 <DllRegisterServer+0x37d4>
   2fc4c2215:	e9 00 00 00 00       	jmp    2fc4c221a <DllRegisterServer+0xc7a>
   2fc4c221a:	8b 45 fc             	mov    eax,DWORD PTR [rbp-0x4]
   2fc4c221d:	2d d6 ff 44 2c       	sub    eax,0x2c44ffd6
   2fc4c2222:	0f 84 a9 1d 00 00    	je     2fc4c3fd1 <DllRegisterServer+0x2a31>
   2fc4c2228:	e9 00 00 00 00       	jmp    2fc4c222d <DllRegisterServer+0xc8d>
   2fc4c222d:	8b 45 fc             	mov    eax,DWORD PTR [rbp-0x4]
   2fc4c2230:	2d 45 5e ba 2c       	sub    eax,0x2cba5e45
   2fc4c2235:	0f 84 1c 15 00 00    	je     2fc4c3757 <DllRegisterServer+0x21b7>
   2fc4c223b:	e9 00 00 00 00       	jmp    2fc4c2240 <DllRegisterServer+0xca0>
   2fc4c2240:	8b 45 fc             	mov    eax,DWORD PTR [rbp-0x4]
   2fc4c2243:	2d 8b d2 e1 2e       	sub    eax,0x2ee1d28b
   2fc4c2248:	0f 84 04 24 00 00    	je     2fc4c4652 <DllRegisterServer+0x30b2>
   2fc4c224e:	e9 00 00 00 00       	jmp    2fc4c2253 <DllRegisterServer+0xcb3>
   2fc4c2253:	8b 45 fc             	mov    eax,DWORD PTR [rbp-0x4]
   2fc4c2256:	2d ba 66 76 2f       	sub    eax,0x2f7666ba
   2fc4c225b:	0f 84 99 30 00 00    	je     2fc4c52fa <DllRegisterServer+0x3d5a>
   2fc4c2261:	e9 00 00 00 00       	jmp    2fc4c2266 <DllRegisterServer+0xcc6>
   2fc4c2266:	8b 45 fc             	mov    eax,DWORD PTR [rbp-0x4]
   2fc4c2269:	2d 46 00 81 2f       	sub    eax,0x2f810046
   2fc4c226e:	0f 84 ac 21 00 00    	je     2fc4c4420 <DllRegisterServer+0x2e80>
   2fc4c2274:	e9 00 00 00 00       	jmp    2fc4c2279 <DllRegisterServer+0xcd9>
   2fc4c2279:	8b 45 fc             	mov    eax,DWORD PTR [rbp-0x4]
   2fc4c227c:	2d cf 08 2b 30       	sub    eax,0x302b08cf
   2fc4c2281:	0f 84 7f 36 00 00    	je     2fc4c5906 <DllRegisterServer+0x4366>
   2fc4c2287:	e9 00 00 00 00       	jmp    2fc4c228c <DllRegisterServer+0xcec>
   2fc4c228c:	8b 45 fc             	mov    eax,DWORD PTR [rbp-0x4]
   2fc4c228f:	2d 25 48 6b 30       	sub    eax,0x306b4825
   2fc4c2294:	0f 84 40 0b 00 00    	je     2fc4c2dda <DllRegisterServer+0x183a>
   2fc4c229a:	e9 00 00 00 00       	jmp    2fc4c229f <DllRegisterServer+0xcff>
   2fc4c229f:	8b 45 fc             	mov    eax,DWORD PTR [rbp-0x4]
   2fc4c22a2:	2d 53 3b 2e 33       	sub    eax,0x332e3b53
   2fc4c22a7:	0f 84 4a 3d 00 00    	je     2fc4c5ff7 <DllRegisterServer+0x4a57>
   2fc4c22ad:	e9 00 00 00 00       	jmp    2fc4c22b2 <DllRegisterServer+0xd12>
   2fc4c22b2:	8b 45 fc             	mov    eax,DWORD PTR [rbp-0x4]
   2fc4c22b5:	2d 9e b7 a3 36       	sub    eax,0x36a3b79e
   2fc4c22ba:	0f 84 b1 35 00 00    	je     2fc4c5871 <DllRegisterServer+0x42d1>
   2fc4c22c0:	e9 00 00 00 00       	jmp    2fc4c22c5 <DllRegisterServer+0xd25>
   2fc4c22c5:	8b 45 fc             	mov    eax,DWORD PTR [rbp-0x4]
   2fc4c22c8:	2d d8 1d b3 36       	sub    eax,0x36b31dd8
   2fc4c22cd:	0f 84 56 47 00 00    	je     2fc4c6a29 <DllRegisterServer+0x5489>
   2fc4c22d3:	e9 00 00 00 00       	jmp    2fc4c22d8 <DllRegisterServer+0xd38>
   2fc4c22d8:	8b 45 fc             	mov    eax,DWORD PTR [rbp-0x4]
   2fc4c22db:	2d d6 7c bc 36       	sub    eax,0x36bc7cd6
   2fc4c22e0:	0f 84 11 2e 00 00    	je     2fc4c50f7 <DllRegisterServer+0x3b57>
   2fc4c22e6:	e9 00 00 00 00       	jmp    2fc4c22eb <DllRegisterServer+0xd4b>
   2fc4c22eb:	8b 45 fc             	mov    eax,DWORD PTR [rbp-0x4]
   2fc4c22ee:	2d 2d 39 c7 36       	sub    eax,0x36c7392d
   2fc4c22f3:	0f 84 8a 13 00 00    	je     2fc4c3683 <DllRegisterServer+0x20e3>
   2fc4c22f9:	e9 00 00 00 00       	jmp    2fc4c22fe <DllRegisterServer+0xd5e>
   2fc4c22fe:	8b 45 fc             	mov    eax,DWORD PTR [rbp-0x4]
   2fc4c2301:	2d 8f 43 75 37       	sub    eax,0x3775438f
   2fc4c2306:	0f 84 84 27 00 00    	je     2fc4c4a90 <DllRegisterServer+0x34f0>
   2fc4c230c:	e9 00 00 00 00       	jmp    2fc4c2311 <DllRegisterServer+0xd71>
   2fc4c2311:	8b 45 fc             	mov    eax,DWORD PTR [rbp-0x4]
   2fc4c2314:	2d 3f 0f a9 37       	sub    eax,0x37a90f3f
   2fc4c2319:	0f 84 54 27 00 00    	je     2fc4c4a73 <DllRegisterServer+0x34d3>
   2fc4c231f:	e9 00 00 00 00       	jmp    2fc4c2324 <DllRegisterServer+0xd84>
   2fc4c2324:	8b 45 fc             	mov    eax,DWORD PTR [rbp-0x4]
   2fc4c2327:	2d 74 9d f9 37       	sub    eax,0x37f99d74
   2fc4c232c:	0f 84 2b 25 00 00    	je     2fc4c485d <DllRegisterServer+0x32bd>
   2fc4c2332:	e9 00 00 00 00       	jmp    2fc4c2337 <DllRegisterServer+0xd97>
   2fc4c2337:	8b 45 fc             	mov    eax,DWORD PTR [rbp-0x4]
   2fc4c233a:	2d 96 81 48 39       	sub    eax,0x39488196
   2fc4c233f:	0f 84 e1 28 00 00    	je     2fc4c4c26 <DllRegisterServer+0x3686>
   2fc4c2345:	e9 00 00 00 00       	jmp    2fc4c234a <DllRegisterServer+0xdaa>
   2fc4c234a:	8b 45 fc             	mov    eax,DWORD PTR [rbp-0x4]
   2fc4c234d:	2d 27 59 80 39       	sub    eax,0x39805927
   2fc4c2352:	0f 84 b9 45 00 00    	je     2fc4c6911 <DllRegisterServer+0x5371>
   2fc4c2358:	e9 00 00 00 00       	jmp    2fc4c235d <DllRegisterServer+0xdbd>
   2fc4c235d:	8b 45 fc             	mov    eax,DWORD PTR [rbp-0x4]
   2fc4c2360:	2d de 16 bc 3a       	sub    eax,0x3abc16de
   2fc4c2365:	0f 84 49 39 00 00    	je     2fc4c5cb4 <DllRegisterServer+0x4714>
   2fc4c236b:	e9 00 00 00 00       	jmp    2fc4c2370 <DllRegisterServer+0xdd0>
   2fc4c2370:	8b 45 fc             	mov    eax,DWORD PTR [rbp-0x4]
   2fc4c2373:	2d 15 15 7d 3b       	sub    eax,0x3b7d1515
   2fc4c2378:	0f 84 5a 29 00 00    	je     2fc4c4cd8 <DllRegisterServer+0x3738>
   2fc4c237e:	e9 00 00 00 00       	jmp    2fc4c2383 <DllRegisterServer+0xde3>
   2fc4c2383:	8b 45 fc             	mov    eax,DWORD PTR [rbp-0x4]
   2fc4c2386:	2d 56 f2 09 3e       	sub    eax,0x3e09f256
   2fc4c238b:	0f 84 0f 2d 00 00    	je     2fc4c50a0 <DllRegisterServer+0x3b00>
   2fc4c2391:	e9 00 00 00 00       	jmp    2fc4c2396 <DllRegisterServer+0xdf6>
   2fc4c2396:	8b 45 fc             	mov    eax,DWORD PTR [rbp-0x4]
   2fc4c2399:	2d 46 14 4a 3e       	sub    eax,0x3e4a1446
   2fc4c239e:	0f 84 c1 3c 00 00    	je     2fc4c6065 <DllRegisterServer+0x4ac5>
   2fc4c23a4:	e9 00 00 00 00       	jmp    2fc4c23a9 <DllRegisterServer+0xe09>
   2fc4c23a9:	8b 45 fc             	mov    eax,DWORD PTR [rbp-0x4]
   2fc4c23ac:	2d f0 ed d9 3e       	sub    eax,0x3ed9edf0
   2fc4c23b1:	0f 84 10 20 00 00    	je     2fc4c43c7 <DllRegisterServer+0x2e27>
   2fc4c23b7:	e9 00 00 00 00       	jmp    2fc4c23bc <DllRegisterServer+0xe1c>
   2fc4c23bc:	8b 45 fc             	mov    eax,DWORD PTR [rbp-0x4]
   2fc4c23bf:	2d 91 89 04 41       	sub    eax,0x41048991
   2fc4c23c4:	0f 84 8d 34 00 00    	je     2fc4c5857 <DllRegisterServer+0x42b7>
   2fc4c23ca:	e9 00 00 00 00       	jmp    2fc4c23cf <DllRegisterServer+0xe2f>
   2fc4c23cf:	8b 45 fc             	mov    eax,DWORD PTR [rbp-0x4]
   2fc4c23d2:	2d a2 91 82 41       	sub    eax,0x418291a2
   2fc4c23d7:	0f 84 72 0a 00 00    	je     2fc4c2e4f <DllRegisterServer+0x18af>
   2fc4c23dd:	e9 00 00 00 00       	jmp    2fc4c23e2 <DllRegisterServer+0xe42>
   2fc4c23e2:	8b 45 fc             	mov    eax,DWORD PTR [rbp-0x4]
   2fc4c23e5:	2d 15 fa c9 41       	sub    eax,0x41c9fa15
   2fc4c23ea:	0f 84 e9 2c 00 00    	je     2fc4c50d9 <DllRegisterServer+0x3b39>
   2fc4c23f0:	e9 00 00 00 00       	jmp    2fc4c23f5 <DllRegisterServer+0xe55>
   2fc4c23f5:	8b 45 fc             	mov    eax,DWORD PTR [rbp-0x4]
   2fc4c23f8:	2d e8 89 7d 42       	sub    eax,0x427d89e8
   2fc4c23fd:	0f 84 a4 1f 00 00    	je     2fc4c43a7 <DllRegisterServer+0x2e07>
   2fc4c2403:	e9 00 00 00 00       	jmp    2fc4c2408 <DllRegisterServer+0xe68>
   2fc4c2408:	8b 45 fc             	mov    eax,DWORD PTR [rbp-0x4]
   2fc4c240b:	2d db 9c 55 43       	sub    eax,0x43559cdb
   2fc4c2410:	0f 84 a9 23 00 00    	je     2fc4c47bf <DllRegisterServer+0x321f>
   2fc4c2416:	e9 00 00 00 00       	jmp    2fc4c241b <DllRegisterServer+0xe7b>
   2fc4c241b:	8b 45 fc             	mov    eax,DWORD PTR [rbp-0x4]
   2fc4c241e:	2d 56 2f 84 43       	sub    eax,0x43842f56
   2fc4c2423:	0f 84 5a 09 00 00    	je     2fc4c2d83 <DllRegisterServer+0x17e3>
   2fc4c2429:	e9 00 00 00 00       	jmp    2fc4c242e <DllRegisterServer+0xe8e>
   2fc4c242e:	8b 45 fc             	mov    eax,DWORD PTR [rbp-0x4]
   2fc4c2431:	2d 01 26 d5 43       	sub    eax,0x43d52601
   2fc4c2436:	0f 84 5b 28 00 00    	je     2fc4c4c97 <DllRegisterServer+0x36f7>
   2fc4c243c:	e9 00 00 00 00       	jmp    2fc4c2441 <DllRegisterServer+0xea1>
   2fc4c2441:	8b 45 fc             	mov    eax,DWORD PTR [rbp-0x4]
   2fc4c2444:	2d ea d6 ec 43       	sub    eax,0x43ecd6ea
   2fc4c2449:	0f 84 c6 2c 00 00    	je     2fc4c5115 <DllRegisterServer+0x3b75>
   2fc4c244f:	e9 00 00 00 00       	jmp    2fc4c2454 <DllRegisterServer+0xeb4>
   2fc4c2454:	8b 45 fc             	mov    eax,DWORD PTR [rbp-0x4]
   2fc4c2457:	2d 69 50 f3 45       	sub    eax,0x45f35069
   2fc4c245c:	0f 84 a4 35 00 00    	je     2fc4c5a06 <DllRegisterServer+0x4466>
   2fc4c2462:	e9 00 00 00 00       	jmp    2fc4c2467 <DllRegisterServer+0xec7>
   2fc4c2467:	8b 45 fc             	mov    eax,DWORD PTR [rbp-0x4]
   2fc4c246a:	2d 8b 35 de 46       	sub    eax,0x46de358b
   2fc4c246f:	0f 84 49 25 00 00    	je     2fc4c49be <DllRegisterServer+0x341e>
   2fc4c2475:	e9 00 00 00 00       	jmp    2fc4c247a <DllRegisterServer+0xeda>
   2fc4c247a:	8b 45 fc             	mov    eax,DWORD PTR [rbp-0x4]
   2fc4c247d:	2d 38 78 7a 48       	sub    eax,0x487a7838
   2fc4c2482:	0f 84 46 38 00 00    	je     2fc4c5cce <DllRegisterServer+0x472e>
   2fc4c2488:	e9 00 00 00 00       	jmp    2fc4c248d <DllRegisterServer+0xeed>
   2fc4c248d:	8b 45 fc             	mov    eax,DWORD PTR [rbp-0x4]
   2fc4c2490:	2d 36 f3 90 48       	sub    eax,0x4890f336
   2fc4c2495:	0f 84 6a 21 00 00    	je     2fc4c4605 <DllRegisterServer+0x3065>
   2fc4c249b:	e9 00 00 00 00       	jmp    2fc4c24a0 <DllRegisterServer+0xf00>
   2fc4c24a0:	8b 45 fc             	mov    eax,DWORD PTR [rbp-0x4]
   2fc4c24a3:	2d 17 0b ee 48       	sub    eax,0x48ee0b17
   2fc4c24a8:	0f 84 47 06 00 00    	je     2fc4c2af5 <DllRegisterServer+0x1555>
   2fc4c24ae:	e9 00 00 00 00       	jmp    2fc4c24b3 <DllRegisterServer+0xf13>
   2fc4c24b3:	8b 45 fc             	mov    eax,DWORD PTR [rbp-0x4]
   2fc4c24b6:	2d f8 3a 13 49       	sub    eax,0x49133af8
   2fc4c24bb:	0f 84 45 37 00 00    	je     2fc4c5c06 <DllRegisterServer+0x4666>
   2fc4c24c1:	e9 00 00 00 00       	jmp    2fc4c24c6 <DllRegisterServer+0xf26>
   2fc4c24c6:	8b 45 fc             	mov    eax,DWORD PTR [rbp-0x4]
   2fc4c24c9:	2d 5d 04 65 49       	sub    eax,0x4965045d
   2fc4c24ce:	0f 84 7a 2d 00 00    	je     2fc4c524e <DllRegisterServer+0x3cae>
   2fc4c24d4:	e9 00 00 00 00       	jmp    2fc4c24d9 <DllRegisterServer+0xf39>
   2fc4c24d9:	8b 45 fc             	mov    eax,DWORD PTR [rbp-0x4]
   2fc4c24dc:	2d 3b b9 dc 49       	sub    eax,0x49dcb93b
   2fc4c24e1:	0f 84 d0 20 00 00    	je     2fc4c45b7 <DllRegisterServer+0x3017>
   2fc4c24e7:	e9 00 00 00 00       	jmp    2fc4c24ec <DllRegisterServer+0xf4c>
   2fc4c24ec:	8b 45 fc             	mov    eax,DWORD PTR [rbp-0x4]
   2fc4c24ef:	2d 4f 28 4a 4a       	sub    eax,0x4a4a284f
   2fc4c24f4:	0f 84 f9 13 00 00    	je     2fc4c38f3 <DllRegisterServer+0x2353>
   2fc4c24fa:	e9 00 00 00 00       	jmp    2fc4c24ff <DllRegisterServer+0xf5f>
   2fc4c24ff:	8b 45 fc             	mov    eax,DWORD PTR [rbp-0x4]
   2fc4c2502:	2d 64 6e ab 4a       	sub    eax,0x4aab6e64
   2fc4c2507:	0f 84 5c 2c 00 00    	je     2fc4c5169 <DllRegisterServer+0x3bc9>
   2fc4c250d:	e9 00 00 00 00       	jmp    2fc4c2512 <DllRegisterServer+0xf72>
   2fc4c2512:	8b 45 fc             	mov    eax,DWORD PTR [rbp-0x4]
   2fc4c2515:	2d 4c d2 a1 4b       	sub    eax,0x4ba1d24c
   2fc4c251a:	0f 84 f6 46 00 00    	je     2fc4c6c16 <DllRegisterServer+0x5676>
   2fc4c2520:	e9 00 00 00 00       	jmp    2fc4c2525 <DllRegisterServer+0xf85>
   2fc4c2525:	8b 45 fc             	mov    eax,DWORD PTR [rbp-0x4]
   2fc4c2528:	2d 59 db a3 4b       	sub    eax,0x4ba3db59
   2fc4c252d:	0f 84 d6 30 00 00    	je     2fc4c5609 <DllRegisterServer+0x4069>
   2fc4c2533:	e9 00 00 00 00       	jmp    2fc4c2538 <DllRegisterServer+0xf98>
   2fc4c2538:	8b 45 fc             	mov    eax,DWORD PTR [rbp-0x4]
   2fc4c253b:	2d 10 b9 96 4c       	sub    eax,0x4c96b910
   2fc4c2540:	0f 84 33 43 00 00    	je     2fc4c6879 <DllRegisterServer+0x52d9>
   2fc4c2546:	e9 00 00 00 00       	jmp    2fc4c254b <DllRegisterServer+0xfab>
   2fc4c254b:	8b 45 fc             	mov    eax,DWORD PTR [rbp-0x4]
   2fc4c254e:	2d 8b af a4 4c       	sub    eax,0x4ca4af8b
   2fc4c2553:	0f 84 48 10 00 00    	je     2fc4c35a1 <DllRegisterServer+0x2001>
   2fc4c2559:	e9 00 00 00 00       	jmp    2fc4c255e <DllRegisterServer+0xfbe>
   2fc4c255e:	8b 45 fc             	mov    eax,DWORD PTR [rbp-0x4]
   2fc4c2561:	2d 73 7f c5 4c       	sub    eax,0x4cc57f73
   2fc4c2566:	0f 84 8b 32 00 00    	je     2fc4c57f7 <DllRegisterServer+0x4257>
   2fc4c256c:	e9 00 00 00 00       	jmp    2fc4c2571 <DllRegisterServer+0xfd1>
   2fc4c2571:	8b 45 fc             	mov    eax,DWORD PTR [rbp-0x4]
   2fc4c2574:	2d 63 3b 3a 4d       	sub    eax,0x4d3a3b63
   2fc4c2579:	0f 84 b4 13 00 00    	je     2fc4c3933 <DllRegisterServer+0x2393>
   2fc4c257f:	e9 00 00 00 00       	jmp    2fc4c2584 <DllRegisterServer+0xfe4>
   2fc4c2584:	8b 45 fc             	mov    eax,DWORD PTR [rbp-0x4]
   2fc4c2587:	2d 7d 39 c5 4d       	sub    eax,0x4dc5397d
   2fc4c258c:	0f 84 ed 21 00 00    	je     2fc4c477f <DllRegisterServer+0x31df>
   2fc4c2592:	e9 00 00 00 00       	jmp    2fc4c2597 <DllRegisterServer+0xff7>
   2fc4c2597:	8b 45 fc             	mov    eax,DWORD PTR [rbp-0x4]
   2fc4c259a:	2d 37 f7 50 4e       	sub    eax,0x4e50f737
   2fc4c259f:	0f 84 26 45 00 00    	je     2fc4c6acb <DllRegisterServer+0x552b>
   2fc4c25a5:	e9 00 00 00 00       	jmp    2fc4c25aa <DllRegisterServer+0x100a>
   2fc4c25aa:	8b 45 fc             	mov    eax,DWORD PTR [rbp-0x4]
   2fc4c25ad:	2d 5a 4b 69 50       	sub    eax,0x50694b5a
   2fc4c25b2:	0f 84 2e 25 00 00    	je     2fc4c4ae6 <DllRegisterServer+0x3546>
   2fc4c25b8:	e9 00 00 00 00       	jmp    2fc4c25bd <DllRegisterServer+0x101d>
   2fc4c25bd:	8b 45 fc             	mov    eax,DWORD PTR [rbp-0x4]
   2fc4c25c0:	2d 74 f4 cd 50       	sub    eax,0x50cdf474
   2fc4c25c5:	0f 84 6f 32 00 00    	je     2fc4c583a <DllRegisterServer+0x429a>
   2fc4c25cb:	e9 00 00 00 00       	jmp    2fc4c25d0 <DllRegisterServer+0x1030>
   2fc4c25d0:	8b 45 fc             	mov    eax,DWORD PTR [rbp-0x4]
   2fc4c25d3:	2d 74 4f 71 51       	sub    eax,0x51714f74
   2fc4c25d8:	0f 84 47 42 00 00    	je     2fc4c6825 <DllRegisterServer+0x5285>
   2fc4c25de:	e9 00 00 00 00       	jmp    2fc4c25e3 <DllRegisterServer+0x1043>
   2fc4c25e3:	8b 45 fc             	mov    eax,DWORD PTR [rbp-0x4]
   2fc4c25e6:	2d fd 74 cd 51       	sub    eax,0x51cd74fd
   2fc4c25eb:	0f 84 d4 0f 00 00    	je     2fc4c35c5 <DllRegisterServer+0x2025>
   2fc4c25f1:	e9 00 00 00 00       	jmp    2fc4c25f6 <DllRegisterServer+0x1056>
   2fc4c25f6:	8b 45 fc             	mov    eax,DWORD PTR [rbp-0x4]
   2fc4c25f9:	2d 3e 9a da 51       	sub    eax,0x51da9a3e
   2fc4c25fe:	0f 84 cd 32 00 00    	je     2fc4c58d1 <DllRegisterServer+0x4331>
   2fc4c2604:	e9 00 00 00 00       	jmp    2fc4c2609 <DllRegisterServer+0x1069>
   2fc4c2609:	8b 45 fc             	mov    eax,DWORD PTR [rbp-0x4]
   2fc4c260c:	2d dd 1e ed 51       	sub    eax,0x51ed1edd
   2fc4c2611:	0f 84 8c 35 00 00    	je     2fc4c5ba3 <DllRegisterServer+0x4603>
   2fc4c2617:	e9 00 00 00 00       	jmp    2fc4c261c <DllRegisterServer+0x107c>
   2fc4c261c:	8b 45 fc             	mov    eax,DWORD PTR [rbp-0x4]
   2fc4c261f:	2d bf 31 ac 52       	sub    eax,0x52ac31bf
   2fc4c2624:	0f 84 50 36 00 00    	je     2fc4c5c7a <DllRegisterServer+0x46da>
   2fc4c262a:	e9 00 00 00 00       	jmp    2fc4c262f <DllRegisterServer+0x108f>
   2fc4c262f:	8b 45 fc             	mov    eax,DWORD PTR [rbp-0x4]
   2fc4c2632:	2d 98 86 da 53       	sub    eax,0x53da8698
   2fc4c2637:	0f 84 a2 10 00 00    	je     2fc4c36df <DllRegisterServer+0x213f>
   2fc4c263d:	e9 00 00 00 00       	jmp    2fc4c2642 <DllRegisterServer+0x10a2>
   2fc4c2642:	8b 45 fc             	mov    eax,DWORD PTR [rbp-0x4]
   2fc4c2645:	2d 80 e8 a3 55       	sub    eax,0x55a3e880
   2fc4c264a:	0f 84 85 25 00 00    	je     2fc4c4bd5 <DllRegisterServer+0x3635>
   2fc4c2650:	e9 00 00 00 00       	jmp    2fc4c2655 <DllRegisterServer+0x10b5>
   2fc4c2655:	8b 45 fc             	mov    eax,DWORD PTR [rbp-0x4]
   2fc4c2658:	2d 2e 6e a4 55       	sub    eax,0x55a46e2e
   2fc4c265d:	0f 84 ce 2c 00 00    	je     2fc4c5331 <DllRegisterServer+0x3d91>
   2fc4c2663:	e9 00 00 00 00       	jmp    2fc4c2668 <DllRegisterServer+0x10c8>
   2fc4c2668:	8b 45 fc             	mov    eax,DWORD PTR [rbp-0x4]
   2fc4c266b:	2d 43 a1 f0 55       	sub    eax,0x55f0a143
   2fc4c2670:	0f 84 b7 2e 00 00    	je     2fc4c552d <DllRegisterServer+0x3f8d>
   2fc4c2676:	e9 00 00 00 00       	jmp    2fc4c267b <DllRegisterServer+0x10db>
   2fc4c267b:	8b 45 fc             	mov    eax,DWORD PTR [rbp-0x4]
   2fc4c267e:	2d 69 f3 a1 56       	sub    eax,0x56a1f369
   2fc4c2683:	0f 84 bf 20 00 00    	je     2fc4c4748 <DllRegisterServer+0x31a8>
   2fc4c2689:	e9 00 00 00 00       	jmp    2fc4c268e <DllRegisterServer+0x10ee>
   2fc4c268e:	8b 45 fc             	mov    eax,DWORD PTR [rbp-0x4]
   2fc4c2691:	2d 92 7b 81 57       	sub    eax,0x57817b92
   2fc4c2696:	0f 84 b4 23 00 00    	je     2fc4c4a50 <DllRegisterServer+0x34b0>
   2fc4c269c:	e9 00 00 00 00       	jmp    2fc4c26a1 <DllRegisterServer+0x1101>
   2fc4c26a1:	8b 45 fc             	mov    eax,DWORD PTR [rbp-0x4]
   2fc4c26a4:	2d fc e8 59 5a       	sub    eax,0x5a59e8fc
   2fc4c26a9:	0f 84 3c 32 00 00    	je     2fc4c58eb <DllRegisterServer+0x434b>
   2fc4c26af:	e9 00 00 00 00       	jmp    2fc4c26b4 <DllRegisterServer+0x1114>
   2fc4c26b4:	8b 45 fc             	mov    eax,DWORD PTR [rbp-0x4]
   2fc4c26b7:	2d d1 50 74 5a       	sub    eax,0x5a7450d1
   2fc4c26bc:	0f 84 ef 02 00 00    	je     2fc4c29b1 <DllRegisterServer+0x1411>
   2fc4c26c2:	e9 00 00 00 00       	jmp    2fc4c26c7 <DllRegisterServer+0x1127>
   2fc4c26c7:	8b 45 fc             	mov    eax,DWORD PTR [rbp-0x4]
   2fc4c26ca:	2d 2b bf c4 5a       	sub    eax,0x5ac4bf2b
   2fc4c26cf:	0f 84 33 41 00 00    	je     2fc4c6808 <DllRegisterServer+0x5268>
   2fc4c26d5:	e9 00 00 00 00       	jmp    2fc4c26da <DllRegisterServer+0x113a>
   2fc4c26da:	8b 45 fc             	mov    eax,DWORD PTR [rbp-0x4]
   2fc4c26dd:	2d c8 b6 18 5b       	sub    eax,0x5b18b6c8
   2fc4c26e2:	0f 84 0f 42 00 00    	je     2fc4c68f7 <DllRegisterServer+0x5357>
   2fc4c26e8:	e9 00 00 00 00       	jmp    2fc4c26ed <DllRegisterServer+0x114d>
   2fc4c26ed:	8b 45 fc             	mov    eax,DWORD PTR [rbp-0x4]
   2fc4c26f0:	2d 39 18 91 5b       	sub    eax,0x5b911839
   2fc4c26f5:	0f 84 a6 2a 00 00    	je     2fc4c51a1 <DllRegisterServer+0x3c01>
   2fc4c26fb:	e9 00 00 00 00       	jmp    2fc4c2700 <DllRegisterServer+0x1160>
   2fc4c2700:	8b 45 fc             	mov    eax,DWORD PTR [rbp-0x4]
   2fc4c2703:	2d a2 9f 27 5c       	sub    eax,0x5c279fa2
   2fc4c2708:	0f 84 b8 42 00 00    	je     2fc4c69c6 <DllRegisterServer+0x5426>
   2fc4c270e:	e9 00 00 00 00       	jmp    2fc4c2713 <DllRegisterServer+0x1173>
   2fc4c2713:	8b 45 fc             	mov    eax,DWORD PTR [rbp-0x4]
   2fc4c2716:	2d 2f 56 62 5d       	sub    eax,0x5d62562f
   2fc4c271b:	0f 84 9a 29 00 00    	je     2fc4c50bb <DllRegisterServer+0x3b1b>
   2fc4c2721:	e9 00 00 00 00       	jmp    2fc4c2726 <DllRegisterServer+0x1186>
   2fc4c2726:	8b 45 fc             	mov    eax,DWORD PTR [rbp-0x4]
   2fc4c2729:	2d ea c8 99 5d       	sub    eax,0x5d99c8ea
   2fc4c272e:	0f 84 24 34 00 00    	je     2fc4c5b58 <DllRegisterServer+0x45b8>
   2fc4c2734:	e9 00 00 00 00       	jmp    2fc4c2739 <DllRegisterServer+0x1199>
   2fc4c2739:	8b 45 fc             	mov    eax,DWORD PTR [rbp-0x4]
   2fc4c273c:	2d 2f cf c6 5d       	sub    eax,0x5dc6cf2f
   2fc4c2741:	0f 84 e7 17 00 00    	je     2fc4c3f2e <DllRegisterServer+0x298e>
   2fc4c2747:	e9 00 00 00 00       	jmp    2fc4c274c <DllRegisterServer+0x11ac>
   2fc4c274c:	8b 45 fc             	mov    eax,DWORD PTR [rbp-0x4]
   2fc4c274f:	2d 17 ee e2 5d       	sub    eax,0x5de2ee17
   2fc4c2754:	0f 84 09 1d 00 00    	je     2fc4c4463 <DllRegisterServer+0x2ec3>
   2fc4c275a:	e9 00 00 00 00       	jmp    2fc4c275f <DllRegisterServer+0x11bf>
   2fc4c275f:	8b 45 fc             	mov    eax,DWORD PTR [rbp-0x4]
   2fc4c2762:	2d a6 77 8a 5f       	sub    eax,0x5f8a77a6
   2fc4c2767:	0f 84 00 1f 00 00    	je     2fc4c466d <DllRegisterServer+0x30cd>
   2fc4c276d:	e9 00 00 00 00       	jmp    2fc4c2772 <DllRegisterServer+0x11d2>
   2fc4c2772:	8b 45 fc             	mov    eax,DWORD PTR [rbp-0x4]
   2fc4c2775:	2d 0f 70 2a 60       	sub    eax,0x602a700f
   2fc4c277a:	0f 84 63 26 00 00    	je     2fc4c4de3 <DllRegisterServer+0x3843>
   2fc4c2780:	e9 00 00 00 00       	jmp    2fc4c2785 <DllRegisterServer+0x11e5>
   2fc4c2785:	8b 45 fc             	mov    eax,DWORD PTR [rbp-0x4]
   2fc4c2788:	2d ee 8d 62 61       	sub    eax,0x61628dee
   2fc4c278d:	0f 84 aa 0f 00 00    	je     2fc4c373d <DllRegisterServer+0x219d>
   2fc4c2793:	e9 00 00 00 00       	jmp    2fc4c2798 <DllRegisterServer+0x11f8>
   2fc4c2798:	8b 45 fc             	mov    eax,DWORD PTR [rbp-0x4]
   2fc4c279b:	2d 08 ad c0 61       	sub    eax,0x61c0ad08
   2fc4c27a0:	0f 84 43 34 00 00    	je     2fc4c5be9 <DllRegisterServer+0x4649>
   2fc4c27a6:	e9 00 00 00 00       	jmp    2fc4c27ab <DllRegisterServer+0x120b>
   2fc4c27ab:	8b 45 fc             	mov    eax,DWORD PTR [rbp-0x4]
   2fc4c27ae:	2d fc df da 61       	sub    eax,0x61dadffc
   2fc4c27b3:	0f 84 c9 38 00 00    	je     2fc4c6082 <DllRegisterServer+0x4ae2>
   2fc4c27b9:	e9 00 00 00 00       	jmp    2fc4c27be <DllRegisterServer+0x121e>
   2fc4c27be:	8b 45 fc             	mov    eax,DWORD PTR [rbp-0x4]
   2fc4c27c1:	2d ed eb 76 62       	sub    eax,0x6276ebed
   2fc4c27c6:	0f 84 ea 2f 00 00    	je     2fc4c57b6 <DllRegisterServer+0x4216>
   2fc4c27cc:	e9 00 00 00 00       	jmp    2fc4c27d1 <DllRegisterServer+0x1231>
   2fc4c27d1:	8b 45 fc             	mov    eax,DWORD PTR [rbp-0x4]
   2fc4c27d4:	2d c8 2a c8 62       	sub    eax,0x62c82ac8
   2fc4c27d9:	0f 84 a4 29 00 00    	je     2fc4c5183 <DllRegisterServer+0x3be3>
   2fc4c27df:	e9 00 00 00 00       	jmp    2fc4c27e4 <DllRegisterServer+0x1244>
   2fc4c27e4:	8b 45 fc             	mov    eax,DWORD PTR [rbp-0x4]
   2fc4c27e7:	2d f0 65 16 63       	sub    eax,0x631665f0
   2fc4c27ec:	0f 84 8a 24 00 00    	je     2fc4c4c7c <DllRegisterServer+0x36dc>
   2fc4c27f2:	e9 00 00 00 00       	jmp    2fc4c27f7 <DllRegisterServer+0x1257>
   2fc4c27f7:	8b 45 fc             	mov    eax,DWORD PTR [rbp-0x4]
   2fc4c27fa:	2d d6 f3 1e 67       	sub    eax,0x671ef3d6
   2fc4c27ff:	0f 84 6b 31 00 00    	je     2fc4c5970 <DllRegisterServer+0x43d0>
   2fc4c2805:	e9 00 00 00 00       	jmp    2fc4c280a <DllRegisterServer+0x126a>
   2fc4c280a:	8b 45 fc             	mov    eax,DWORD PTR [rbp-0x4]
   2fc4c280d:	2d 85 45 a4 67       	sub    eax,0x67a44585
   2fc4c2812:	0f 84 ff 2a 00 00    	je     2fc4c5317 <DllRegisterServer+0x3d77>
   2fc4c2818:	e9 00 00 00 00       	jmp    2fc4c281d <DllRegisterServer+0x127d>
   2fc4c281d:	8b 45 fc             	mov    eax,DWORD PTR [rbp-0x4]
   2fc4c2820:	2d 74 b4 ad 67       	sub    eax,0x67adb474
   2fc4c2825:	0f 84 06 43 00 00    	je     2fc4c6b31 <DllRegisterServer+0x5591>
   2fc4c282b:	e9 00 00 00 00       	jmp    2fc4c2830 <DllRegisterServer+0x1290>
   2fc4c2830:	8b 45 fc             	mov    eax,DWORD PTR [rbp-0x4]
   2fc4c2833:	2d b2 7e ce 69       	sub    eax,0x69ce7eb2
   2fc4c2838:	0f 84 0d 38 00 00    	je     2fc4c604b <DllRegisterServer+0x4aab>
   2fc4c283e:	e9 00 00 00 00       	jmp    2fc4c2843 <DllRegisterServer+0x12a3>
   2fc4c2843:	8b 45 fc             	mov    eax,DWORD PTR [rbp-0x4]
   2fc4c2846:	2d 5c 80 31 6a       	sub    eax,0x6a31805c
   2fc4c284b:	0f 84 86 40 00 00    	je     2fc4c68d7 <DllRegisterServer+0x5337>
   2fc4c2851:	e9 00 00 00 00       	jmp    2fc4c2856 <DllRegisterServer+0x12b6>
   2fc4c2856:	8b 45 fc             	mov    eax,DWORD PTR [rbp-0x4]
   2fc4c2859:	2d 4d 05 62 6a       	sub    eax,0x6a62054d
   2fc4c285e:	0f 84 87 06 00 00    	je     2fc4c2eeb <DllRegisterServer+0x194b>
   2fc4c2864:	e9 00 00 00 00       	jmp    2fc4c2869 <DllRegisterServer+0x12c9>
   2fc4c2869:	8b 45 fc             	mov    eax,DWORD PTR [rbp-0x4]
   2fc4c286c:	2d 1a 97 39 6b       	sub    eax,0x6b39971a
   2fc4c2871:	0f 84 c6 24 00 00    	je     2fc4c4d3d <DllRegisterServer+0x379d>
   2fc4c2877:	e9 00 00 00 00       	jmp    2fc4c287c <DllRegisterServer+0x12dc>
   2fc4c287c:	8b 45 fc             	mov    eax,DWORD PTR [rbp-0x4]
   2fc4c287f:	2d a0 9a c5 6c       	sub    eax,0x6cc59aa0
   2fc4c2884:	0f 84 75 25 00 00    	je     2fc4c4dff <DllRegisterServer+0x385f>
   2fc4c288a:	e9 00 00 00 00       	jmp    2fc4c288f <DllRegisterServer+0x12ef>
   2fc4c288f:	8b 45 fc             	mov    eax,DWORD PTR [rbp-0x4]
   2fc4c2892:	2d 4c a4 14 6e       	sub    eax,0x6e14a44c
   2fc4c2897:	0f 84 a7 2e 00 00    	je     2fc4c5744 <DllRegisterServer+0x41a4>
   2fc4c289d:	e9 00 00 00 00       	jmp    2fc4c28a2 <DllRegisterServer+0x1302>
   2fc4c28a2:	8b 45 fc             	mov    eax,DWORD PTR [rbp-0x4]
   2fc4c28a5:	2d df cb e9 6e       	sub    eax,0x6ee9cbdf
   2fc4c28aa:	0f 84 a9 18 00 00    	je     2fc4c4159 <DllRegisterServer+0x2bb9>
   2fc4c28b0:	e9 00 00 00 00       	jmp    2fc4c28b5 <DllRegisterServer+0x1315>
   2fc4c28b5:	8b 45 fc             	mov    eax,DWORD PTR [rbp-0x4]
   2fc4c28b8:	2d 40 55 6d 6f       	sub    eax,0x6f6d5540
   2fc4c28bd:	0f 84 10 2f 00 00    	je     2fc4c57d3 <DllRegisterServer+0x4233>
   2fc4c28c3:	e9 00 00 00 00       	jmp    2fc4c28c8 <DllRegisterServer+0x1328>
   2fc4c28c8:	8b 45 fc             	mov    eax,DWORD PTR [rbp-0x4]
   2fc4c28cb:	2d 6a 45 2a 70       	sub    eax,0x702a456a
   2fc4c28d0:	0f 84 8a 41 00 00    	je     2fc4c6a60 <DllRegisterServer+0x54c0>
   2fc4c28d6:	e9 00 00 00 00       	jmp    2fc4c28db <DllRegisterServer+0x133b>
   2fc4c28db:	8b 45 fc             	mov    eax,DWORD PTR [rbp-0x4]
   2fc4c28de:	2d 47 f8 c4 70       	sub    eax,0x70c4f847
   2fc4c28e3:	0f 84 b1 42 00 00    	je     2fc4c6b9a <DllRegisterServer+0x55fa>
   2fc4c28e9:	e9 00 00 00 00       	jmp    2fc4c28ee <DllRegisterServer+0x134e>
   2fc4c28ee:	8b 45 fc             	mov    eax,DWORD PTR [rbp-0x4]
   2fc4c28f1:	2d 43 72 f4 70       	sub    eax,0x70f47243
   2fc4c28f6:	0f 84 10 18 00 00    	je     2fc4c410c <DllRegisterServer+0x2b6c>
   2fc4c28fc:	e9 00 00 00 00       	jmp    2fc4c2901 <DllRegisterServer+0x1361>
   2fc4c2901:	8b 45 fc             	mov    eax,DWORD PTR [rbp-0x4]
   2fc4c2904:	2d 78 40 67 72       	sub    eax,0x72674078
   2fc4c2909:	0f 84 38 30 00 00    	je     2fc4c5947 <DllRegisterServer+0x43a7>
   2fc4c290f:	e9 00 00 00 00       	jmp    2fc4c2914 <DllRegisterServer+0x1374>
   2fc4c2914:	8b 45 fc             	mov    eax,DWORD PTR [rbp-0x4]
   2fc4c2917:	2d 1e 3b be 73       	sub    eax,0x73be3b1e
   2fc4c291c:	0f 84 b9 17 00 00    	je     2fc4c40db <DllRegisterServer+0x2b3b>
   2fc4c2922:	e9 00 00 00 00       	jmp    2fc4c2927 <DllRegisterServer+0x1387>
   2fc4c2927:	8b 45 fc             	mov    eax,DWORD PTR [rbp-0x4]
   2fc4c292a:	2d 00 e4 c6 74       	sub    eax,0x74c6e400
   2fc4c292f:	0f 84 62 33 00 00    	je     2fc4c5c97 <DllRegisterServer+0x46f7>
   2fc4c2935:	e9 00 00 00 00       	jmp    2fc4c293a <DllRegisterServer+0x139a>
   2fc4c293a:	8b 45 fc             	mov    eax,DWORD PTR [rbp-0x4]
   2fc4c293d:	2d 3c 9d ce 74       	sub    eax,0x74ce9d3c
   2fc4c2942:	0f 84 45 1a 00 00    	je     2fc4c438d <DllRegisterServer+0x2ded>
   2fc4c2948:	e9 00 00 00 00       	jmp    2fc4c294d <DllRegisterServer+0x13ad>
   2fc4c294d:	8b 45 fc             	mov    eax,DWORD PTR [rbp-0x4]
   2fc4c2950:	2d 34 11 51 78       	sub    eax,0x78511134
   2fc4c2955:	0f 84 a4 2b 00 00    	je     2fc4c54ff <DllRegisterServer+0x3f5f>
   2fc4c295b:	e9 00 00 00 00       	jmp    2fc4c2960 <DllRegisterServer+0x13c0>
   2fc4c2960:	8b 45 fc             	mov    eax,DWORD PTR [rbp-0x4]
   2fc4c2963:	2d 95 b3 80 78       	sub    eax,0x7880b395
   2fc4c2968:	0f 84 94 31 00 00    	je     2fc4c5b02 <DllRegisterServer+0x4562>
   2fc4c296e:	e9 00 00 00 00       	jmp    2fc4c2973 <DllRegisterServer+0x13d3>
   2fc4c2973:	8b 45 fc             	mov    eax,DWORD PTR [rbp-0x4]
   2fc4c2976:	2d f2 d7 d8 7a       	sub    eax,0x7ad8d7f2
   2fc4c297b:	0f 84 b6 04 00 00    	je     2fc4c2e37 <DllRegisterServer+0x1897>
   2fc4c2981:	e9 00 00 00 00       	jmp    2fc4c2986 <DllRegisterServer+0x13e6>
   2fc4c2986:	8b 45 fc             	mov    eax,DWORD PTR [rbp-0x4]
   2fc4c2989:	2d ae 3d f9 7b       	sub    eax,0x7bf93dae
   2fc4c298e:	0f 84 1e 23 00 00    	je     2fc4c4cb2 <DllRegisterServer+0x3712>
   2fc4c2994:	e9 00 00 00 00       	jmp    2fc4c2999 <DllRegisterServer+0x13f9>
   2fc4c2999:	8b 45 fc             	mov    eax,DWORD PTR [rbp-0x4]
   2fc4c299c:	2d 4e 20 53 7c       	sub    eax,0x7c53204e
   2fc4c29a1:	0f 84 0a 2f 00 00    	je     2fc4c58b1 <DllRegisterServer+0x4311>
   2fc4c29a7:	e9 00 00 00 00       	jmp    2fc4c29ac <DllRegisterServer+0x140c>
   2fc4c29ac:	e9 cc 42 00 00       	jmp    2fc4c6c7d <DllRegisterServer+0x56dd>
   2fc4c29b1:	b8 10 00 00 00       	mov    eax,0x10
   2fc4c29b6:	48 89 45 f0          	mov    QWORD PTR [rbp-0x10],rax
   2fc4c29ba:	e8 f1 89 00 00       	call   2fc4cb3b0 <___chkstk_ms>
   2fc4c29bf:	48 29 c4             	sub    rsp,rax
   2fc4c29c2:	48 89 e0             	mov    rax,rsp
   2fc4c29c5:	48 89 45 08          	mov    QWORD PTR [rbp+0x8],rax
   2fc4c29c9:	48 8b 45 f0          	mov    rax,QWORD PTR [rbp-0x10]
   2fc4c29cd:	e8 de 89 00 00       	call   2fc4cb3b0 <___chkstk_ms>
   2fc4c29d2:	48 29 c4             	sub    rsp,rax
   2fc4c29d5:	48 89 e0             	mov    rax,rsp
   2fc4c29d8:	48 89 45 10          	mov    QWORD PTR [rbp+0x10],rax
   2fc4c29dc:	48 8b 45 f0          	mov    rax,QWORD PTR [rbp-0x10]
   2fc4c29e0:	e8 cb 89 00 00       	call   2fc4cb3b0 <___chkstk_ms>
   2fc4c29e5:	48 29 c4             	sub    rsp,rax
   2fc4c29e8:	48 89 e0             	mov    rax,rsp
   2fc4c29eb:	48 89 45 18          	mov    QWORD PTR [rbp+0x18],rax
   2fc4c29ef:	48 8b 45 f0          	mov    rax,QWORD PTR [rbp-0x10]
   2fc4c29f3:	e8 b8 89 00 00       	call   2fc4cb3b0 <___chkstk_ms>
   2fc4c29f8:	48 29 c4             	sub    rsp,rax
   2fc4c29fb:	48 89 e0             	mov    rax,rsp
   2fc4c29fe:	48 89 45 20          	mov    QWORD PTR [rbp+0x20],rax
   2fc4c2a02:	48 8b 45 f0          	mov    rax,QWORD PTR [rbp-0x10]
   2fc4c2a06:	e8 a5 89 00 00       	call   2fc4cb3b0 <___chkstk_ms>
   2fc4c2a0b:	48 29 c4             	sub    rsp,rax
   2fc4c2a0e:	48 89 e0             	mov    rax,rsp
   2fc4c2a11:	48 89 45 28          	mov    QWORD PTR [rbp+0x28],rax
   2fc4c2a15:	48 8b 45 f0          	mov    rax,QWORD PTR [rbp-0x10]
   2fc4c2a19:	e8 92 89 00 00       	call   2fc4cb3b0 <___chkstk_ms>
   2fc4c2a1e:	48 29 c4             	sub    rsp,rax
   2fc4c2a21:	48 89 e0             	mov    rax,rsp
   2fc4c2a24:	48 89 45 30          	mov    QWORD PTR [rbp+0x30],rax
   2fc4c2a28:	48 8b 45 f0          	mov    rax,QWORD PTR [rbp-0x10]
   2fc4c2a2c:	e8 7f 89 00 00       	call   2fc4cb3b0 <___chkstk_ms>
   2fc4c2a31:	48 29 c4             	sub    rsp,rax
   2fc4c2a34:	48 89 e0             	mov    rax,rsp
   2fc4c2a37:	48 89 45 38          	mov    QWORD PTR [rbp+0x38],rax
   2fc4c2a3b:	48 8b 45 f0          	mov    rax,QWORD PTR [rbp-0x10]
   2fc4c2a3f:	e8 6c 89 00 00       	call   2fc4cb3b0 <___chkstk_ms>
   2fc4c2a44:	48 29 c4             	sub    rsp,rax
   2fc4c2a47:	48 89 e0             	mov    rax,rsp
   2fc4c2a4a:	48 89 45 40          	mov    QWORD PTR [rbp+0x40],rax
   2fc4c2a4e:	48 8b 45 f0          	mov    rax,QWORD PTR [rbp-0x10]
   2fc4c2a52:	e8 59 89 00 00       	call   2fc4cb3b0 <___chkstk_ms>
   2fc4c2a57:	48 29 c4             	sub    rsp,rax
   2fc4c2a5a:	48 89 e0             	mov    rax,rsp
   2fc4c2a5d:	48 89 45 48          	mov    QWORD PTR [rbp+0x48],rax
   2fc4c2a61:	48 8b 45 f0          	mov    rax,QWORD PTR [rbp-0x10]
   2fc4c2a65:	e8 46 89 00 00       	call   2fc4cb3b0 <___chkstk_ms>
   2fc4c2a6a:	48 29 c4             	sub    rsp,rax
   2fc4c2a6d:	48 89 e0             	mov    rax,rsp
   2fc4c2a70:	48 89 45 50          	mov    QWORD PTR [rbp+0x50],rax
   2fc4c2a74:	48 8b 45 f0          	mov    rax,QWORD PTR [rbp-0x10]
   2fc4c2a78:	e8 33 89 00 00       	call   2fc4cb3b0 <___chkstk_ms>
   2fc4c2a7d:	48 29 c4             	sub    rsp,rax
   2fc4c2a80:	48 89 e0             	mov    rax,rsp
   2fc4c2a83:	48 89 45 58          	mov    QWORD PTR [rbp+0x58],rax
   2fc4c2a87:	48 8b 45 f0          	mov    rax,QWORD PTR [rbp-0x10]
   2fc4c2a8b:	e8 20 89 00 00       	call   2fc4cb3b0 <___chkstk_ms>
   2fc4c2a90:	48 29 c4             	sub    rsp,rax
   2fc4c2a93:	48 89 e0             	mov    rax,rsp
   2fc4c2a96:	48 89 45 60          	mov    QWORD PTR [rbp+0x60],rax
   2fc4c2a9a:	48 8b 45 f0          	mov    rax,QWORD PTR [rbp-0x10]
   2fc4c2a9e:	e8 0d 89 00 00       	call   2fc4cb3b0 <___chkstk_ms>
   2fc4c2aa3:	48 29 c4             	sub    rsp,rax
   2fc4c2aa6:	48 89 e0             	mov    rax,rsp
   2fc4c2aa9:	48 89 45 68          	mov    QWORD PTR [rbp+0x68],rax
   2fc4c2aad:	48 8b 45 f0          	mov    rax,QWORD PTR [rbp-0x10]
   2fc4c2ab1:	e8 fa 88 00 00       	call   2fc4cb3b0 <___chkstk_ms>
   2fc4c2ab6:	48 29 c4             	sub    rsp,rax
   2fc4c2ab9:	48 89 e0             	mov    rax,rsp
   2fc4c2abc:	48 89 45 70          	mov    QWORD PTR [rbp+0x70],rax
   2fc4c2ac0:	48 8b 45 f0          	mov    rax,QWORD PTR [rbp-0x10]
   2fc4c2ac4:	e8 e7 88 00 00       	call   2fc4cb3b0 <___chkstk_ms>
   2fc4c2ac9:	48 29 c4             	sub    rsp,rax
   2fc4c2acc:	48 89 e0             	mov    rax,rsp
   2fc4c2acf:	48 89 45 78          	mov    QWORD PTR [rbp+0x78],rax
   2fc4c2ad3:	48 8b 45 f0          	mov    rax,QWORD PTR [rbp-0x10]
   2fc4c2ad7:	e8 d4 88 00 00       	call   2fc4cb3b0 <___chkstk_ms>
   2fc4c2adc:	48 29 c4             	sub    rsp,rax
   2fc4c2adf:	48 89 e0             	mov    rax,rsp
   2fc4c2ae2:	48 89 85 80 00 00 00 	mov    QWORD PTR [rbp+0x80],rax
   2fc4c2ae9:	c7 45 00 17 0b ee 48 	mov    DWORD PTR [rbp+0x0],0x48ee0b17
   2fc4c2af0:	e9 88 41 00 00       	jmp    2fc4c6c7d <DllRegisterServer+0x56dd>
   2fc4c2af5:	b8 10 00 00 00       	mov    eax,0x10
   2fc4c2afa:	48 89 45 e8          	mov    QWORD PTR [rbp-0x18],rax
   2fc4c2afe:	e8 ad 88 00 00       	call   2fc4cb3b0 <___chkstk_ms>
   2fc4c2b03:	48 29 c4             	sub    rsp,rax
   2fc4c2b06:	48 89 e0             	mov    rax,rsp
   2fc4c2b09:	48 89 85 88 00 00 00 	mov    QWORD PTR [rbp+0x88],rax
   2fc4c2b10:	48 8b 45 e8          	mov    rax,QWORD PTR [rbp-0x18]
   2fc4c2b14:	e8 97 88 00 00       	call   2fc4cb3b0 <___chkstk_ms>
   2fc4c2b19:	48 29 c4             	sub    rsp,rax
   2fc4c2b1c:	48 89 e0             	mov    rax,rsp
   2fc4c2b1f:	48 89 85 90 00 00 00 	mov    QWORD PTR [rbp+0x90],rax
   2fc4c2b26:	48 8b 45 e8          	mov    rax,QWORD PTR [rbp-0x18]
   2fc4c2b2a:	e8 81 88 00 00       	call   2fc4cb3b0 <___chkstk_ms>
   2fc4c2b2f:	48 29 c4             	sub    rsp,rax
   2fc4c2b32:	48 89 e0             	mov    rax,rsp
   2fc4c2b35:	48 89 85 98 00 00 00 	mov    QWORD PTR [rbp+0x98],rax
   2fc4c2b3c:	c7 45 00 e6 68 a8 ed 	mov    DWORD PTR [rbp+0x0],0xeda868e6
   2fc4c2b43:	e9 35 41 00 00       	jmp    2fc4c6c7d <DllRegisterServer+0x56dd>
   2fc4c2b48:	b8 10 00 00 00       	mov    eax,0x10
   2fc4c2b4d:	48 89 45 e0          	mov    QWORD PTR [rbp-0x20],rax
   2fc4c2b51:	e8 5a 88 00 00       	call   2fc4cb3b0 <___chkstk_ms>
   2fc4c2b56:	48 29 c4             	sub    rsp,rax
   2fc4c2b59:	48 89 e0             	mov    rax,rsp
   2fc4c2b5c:	48 89 85 a0 00 00 00 	mov    QWORD PTR [rbp+0xa0],rax
   2fc4c2b63:	48 8b 45 e0          	mov    rax,QWORD PTR [rbp-0x20]
   2fc4c2b67:	e8 44 88 00 00       	call   2fc4cb3b0 <___chkstk_ms>
   2fc4c2b6c:	48 29 c4             	sub    rsp,rax
   2fc4c2b6f:	48 89 e0             	mov    rax,rsp
   2fc4c2b72:	48 89 85 a8 00 00 00 	mov    QWORD PTR [rbp+0xa8],rax
   2fc4c2b79:	48 8b 45 e0          	mov    rax,QWORD PTR [rbp-0x20]
   2fc4c2b7d:	e8 2e 88 00 00       	call   2fc4cb3b0 <___chkstk_ms>
   2fc4c2b82:	48 29 c4             	sub    rsp,rax
   2fc4c2b85:	48 89 e0             	mov    rax,rsp
   2fc4c2b88:	48 89 85 b0 00 00 00 	mov    QWORD PTR [rbp+0xb0],rax
   2fc4c2b8f:	48 8b 45 e0          	mov    rax,QWORD PTR [rbp-0x20]
   2fc4c2b93:	e8 18 88 00 00       	call   2fc4cb3b0 <___chkstk_ms>
   2fc4c2b98:	48 29 c4             	sub    rsp,rax
   2fc4c2b9b:	48 89 e0             	mov    rax,rsp
   2fc4c2b9e:	48 89 85 b8 00 00 00 	mov    QWORD PTR [rbp+0xb8],rax
   2fc4c2ba5:	48 8b 45 e0          	mov    rax,QWORD PTR [rbp-0x20]
   2fc4c2ba9:	e8 02 88 00 00       	call   2fc4cb3b0 <___chkstk_ms>
   2fc4c2bae:	48 29 c4             	sub    rsp,rax
   2fc4c2bb1:	48 89 e0             	mov    rax,rsp
   2fc4c2bb4:	48 89 85 c0 00 00 00 	mov    QWORD PTR [rbp+0xc0],rax
   2fc4c2bbb:	48 8b 45 e0          	mov    rax,QWORD PTR [rbp-0x20]
   2fc4c2bbf:	e8 ec 87 00 00       	call   2fc4cb3b0 <___chkstk_ms>
   2fc4c2bc4:	48 29 c4             	sub    rsp,rax
   2fc4c2bc7:	48 89 e0             	mov    rax,rsp
   2fc4c2bca:	48 89 85 c8 00 00 00 	mov    QWORD PTR [rbp+0xc8],rax
   2fc4c2bd1:	48 8b 45 e0          	mov    rax,QWORD PTR [rbp-0x20]
   2fc4c2bd5:	e8 d6 87 00 00       	call   2fc4cb3b0 <___chkstk_ms>
   2fc4c2bda:	48 29 c4             	sub    rsp,rax
   2fc4c2bdd:	48 89 e0             	mov    rax,rsp
   2fc4c2be0:	48 89 85 d0 00 00 00 	mov    QWORD PTR [rbp+0xd0],rax
   2fc4c2be7:	c7 45 00 fd 94 05 94 	mov    DWORD PTR [rbp+0x0],0x940594fd
   2fc4c2bee:	e9 8a 40 00 00       	jmp    2fc4c6c7d <DllRegisterServer+0x56dd>
   2fc4c2bf3:	b8 10 00 00 00       	mov    eax,0x10
   2fc4c2bf8:	48 89 45 d8          	mov    QWORD PTR [rbp-0x28],rax
   2fc4c2bfc:	e8 af 87 00 00       	call   2fc4cb3b0 <___chkstk_ms>
   2fc4c2c01:	48 29 c4             	sub    rsp,rax
   2fc4c2c04:	48 89 e0             	mov    rax,rsp
   2fc4c2c07:	48 89 85 d8 00 00 00 	mov    QWORD PTR [rbp+0xd8],rax
   2fc4c2c0e:	48 8b 45 d8          	mov    rax,QWORD PTR [rbp-0x28]
   2fc4c2c12:	e8 99 87 00 00       	call   2fc4cb3b0 <___chkstk_ms>
   2fc4c2c17:	48 29 c4             	sub    rsp,rax
   2fc4c2c1a:	48 89 e0             	mov    rax,rsp
   2fc4c2c1d:	48 89 85 e0 00 00 00 	mov    QWORD PTR [rbp+0xe0],rax
   2fc4c2c24:	48 8b 45 d8          	mov    rax,QWORD PTR [rbp-0x28]
   2fc4c2c28:	e8 83 87 00 00       	call   2fc4cb3b0 <___chkstk_ms>
   2fc4c2c2d:	48 29 c4             	sub    rsp,rax
   2fc4c2c30:	48 89 e0             	mov    rax,rsp
   2fc4c2c33:	48 89 85 e8 00 00 00 	mov    QWORD PTR [rbp+0xe8],rax
   2fc4c2c3a:	48 8b 45 d8          	mov    rax,QWORD PTR [rbp-0x28]
   2fc4c2c3e:	e8 6d 87 00 00       	call   2fc4cb3b0 <___chkstk_ms>
   2fc4c2c43:	48 29 c4             	sub    rsp,rax
   2fc4c2c46:	48 89 e0             	mov    rax,rsp
   2fc4c2c49:	48 89 85 f0 00 00 00 	mov    QWORD PTR [rbp+0xf0],rax
   2fc4c2c50:	c7 45 00 50 bc 14 82 	mov    DWORD PTR [rbp+0x0],0x8214bc50
   2fc4c2c57:	e9 21 40 00 00       	jmp    2fc4c6c7d <DllRegisterServer+0x56dd>
   2fc4c2c5c:	b8 10 00 00 00       	mov    eax,0x10
   2fc4c2c61:	48 89 45 d0          	mov    QWORD PTR [rbp-0x30],rax
   2fc4c2c65:	e8 46 87 00 00       	call   2fc4cb3b0 <___chkstk_ms>
   2fc4c2c6a:	48 29 c4             	sub    rsp,rax
   2fc4c2c6d:	48 89 e0             	mov    rax,rsp
   2fc4c2c70:	48 89 85 f8 00 00 00 	mov    QWORD PTR [rbp+0xf8],rax
   2fc4c2c77:	48 8b 45 d0          	mov    rax,QWORD PTR [rbp-0x30]
   2fc4c2c7b:	e8 30 87 00 00       	call   2fc4cb3b0 <___chkstk_ms>
   2fc4c2c80:	48 29 c4             	sub    rsp,rax
   2fc4c2c83:	48 89 e0             	mov    rax,rsp
   2fc4c2c86:	48 89 85 00 01 00 00 	mov    QWORD PTR [rbp+0x100],rax
   2fc4c2c8d:	c7 45 00 ce f1 32 11 	mov    DWORD PTR [rbp+0x0],0x1132f1ce
   2fc4c2c94:	e9 e4 3f 00 00       	jmp    2fc4c6c7d <DllRegisterServer+0x56dd>
   2fc4c2c99:	b8 10 00 00 00       	mov    eax,0x10
   2fc4c2c9e:	48 89 45 c8          	mov    QWORD PTR [rbp-0x38],rax
   2fc4c2ca2:	e8 09 87 00 00       	call   2fc4cb3b0 <___chkstk_ms>
   2fc4c2ca7:	48 29 c4             	sub    rsp,rax
   2fc4c2caa:	48 89 e0             	mov    rax,rsp
   2fc4c2cad:	48 89 85 08 01 00 00 	mov    QWORD PTR [rbp+0x108],rax
   2fc4c2cb4:	48 8b 45 c8          	mov    rax,QWORD PTR [rbp-0x38]
   2fc4c2cb8:	e8 f3 86 00 00       	call   2fc4cb3b0 <___chkstk_ms>
   2fc4c2cbd:	48 29 c4             	sub    rsp,rax
   2fc4c2cc0:	48 89 e0             	mov    rax,rsp
   2fc4c2cc3:	48 89 85 10 01 00 00 	mov    QWORD PTR [rbp+0x110],rax
   2fc4c2cca:	c7 45 00 39 d2 14 1d 	mov    DWORD PTR [rbp+0x0],0x1d14d239
   2fc4c2cd1:	e9 a7 3f 00 00       	jmp    2fc4c6c7d <DllRegisterServer+0x56dd>
   2fc4c2cd6:	b8 10 00 00 00       	mov    eax,0x10
   2fc4c2cdb:	e8 d0 86 00 00       	call   2fc4cb3b0 <___chkstk_ms>
   2fc4c2ce0:	48 29 c4             	sub    rsp,rax
   2fc4c2ce3:	48 89 e0             	mov    rax,rsp
   2fc4c2ce6:	48 89 85 18 01 00 00 	mov    QWORD PTR [rbp+0x118],rax
   2fc4c2ced:	c7 45 00 61 69 99 05 	mov    DWORD PTR [rbp+0x0],0x5996961
   2fc4c2cf4:	e9 84 3f 00 00       	jmp    2fc4c6c7d <DllRegisterServer+0x56dd>
   2fc4c2cf9:	b8 10 00 00 00       	mov    eax,0x10
   2fc4c2cfe:	48 89 45 c0          	mov    QWORD PTR [rbp-0x40],rax
   2fc4c2d02:	e8 a9 86 00 00       	call   2fc4cb3b0 <___chkstk_ms>
   2fc4c2d07:	48 29 c4             	sub    rsp,rax
   2fc4c2d0a:	48 89 e0             	mov    rax,rsp
   2fc4c2d0d:	48 89 85 20 01 00 00 	mov    QWORD PTR [rbp+0x120],rax
   2fc4c2d14:	48 8b 45 c0          	mov    rax,QWORD PTR [rbp-0x40]
   2fc4c2d18:	e8 93 86 00 00       	call   2fc4cb3b0 <___chkstk_ms>
   2fc4c2d1d:	48 29 c4             	sub    rsp,rax
   2fc4c2d20:	48 89 e0             	mov    rax,rsp
   2fc4c2d23:	48 89 85 28 01 00 00 	mov    QWORD PTR [rbp+0x128],rax
   2fc4c2d2a:	48 8d 45 04          	lea    rax,[rbp+0x4]
   2fc4c2d2e:	48 89 85 30 01 00 00 	mov    QWORD PTR [rbp+0x130],rax
   2fc4c2d35:	c7 45 00 40 05 05 f5 	mov    DWORD PTR [rbp+0x0],0xf5050540
   2fc4c2d3c:	e9 3c 3f 00 00       	jmp    2fc4c6c7d <DllRegisterServer+0x56dd>
   2fc4c2d41:	48 8b 8d 30 01 00 00 	mov    rcx,QWORD PTR [rbp+0x130]
   2fc4c2d48:	48 83 ec 20          	sub    rsp,0x20
   2fc4c2d4c:	48 8d 15 cd 92 00 00 	lea    rdx,[rip+0x92cd]        # 2fc4cc020 <gBuf>
   2fc4c2d53:	41 b8 04 00 00 00    	mov    r8d,0x4
   2fc4c2d59:	e8 32 3f 00 00       	call   2fc4c6c90 <MemCpy>
   2fc4c2d5e:	48 83 c4 20          	add    rsp,0x20
   2fc4c2d62:	48 8d 0d b7 92 00 00 	lea    rcx,[rip+0x92b7]        # 2fc4cc020 <gBuf>
   2fc4c2d69:	48 81 c1 04 00 00 00 	add    rcx,0x4
   2fc4c2d70:	48 8b 55 08          	mov    rdx,QWORD PTR [rbp+0x8]
   2fc4c2d74:	48 89 0a             	mov    QWORD PTR [rdx],rcx
   2fc4c2d77:	c7 45 00 56 2f 84 43 	mov    DWORD PTR [rbp+0x0],0x43842f56
   2fc4c2d7e:	e9 fa 3e 00 00       	jmp    2fc4c6c7d <DllRegisterServer+0x56dd>
   2fc4c2d83:	48 8d 05 96 92 00 00 	lea    rax,[rip+0x9296]        # 2fc4cc020 <gBuf>
   2fc4c2d8a:	48 05 14 27 00 00    	add    rax,0x2714
   2fc4c2d90:	48 8b 4d 10          	mov    rcx,QWORD PTR [rbp+0x10]
   2fc4c2d94:	48 89 01             	mov    QWORD PTR [rcx],rax
   2fc4c2d97:	48 8b 45 18          	mov    rax,QWORD PTR [rbp+0x18]
   2fc4c2d9b:	c7 00 00 00 00 00    	mov    DWORD PTR [rax],0x0
   2fc4c2da1:	c7 45 00 d5 72 2c 29 	mov    DWORD PTR [rbp+0x0],0x292c72d5
   2fc4c2da8:	e9 d0 3e 00 00       	jmp    2fc4c6c7d <DllRegisterServer+0x56dd>
   2fc4c2dad:	48 8b 45 18          	mov    rax,QWORD PTR [rbp+0x18]
   2fc4c2db1:	8b 08                	mov    ecx,DWORD PTR [rax]
   2fc4c2db3:	89 8d 3c 01 00 00    	mov    DWORD PTR [rbp+0x13c],ecx
   2fc4c2db9:	c7 45 00 e6 c5 c3 8c 	mov    DWORD PTR [rbp+0x0],0x8cc3c5e6
   2fc4c2dc0:	e9 b8 3e 00 00       	jmp    2fc4c6c7d <DllRegisterServer+0x56dd>
   2fc4c2dc5:	8b 45 04             	mov    eax,DWORD PTR [rbp+0x4]
   2fc4c2dc8:	89 85 40 01 00 00    	mov    DWORD PTR [rbp+0x140],eax
   2fc4c2dce:	c7 45 00 25 48 6b 30 	mov    DWORD PTR [rbp+0x0],0x306b4825
   2fc4c2dd5:	e9 a3 3e 00 00       	jmp    2fc4c6c7d <DllRegisterServer+0x56dd>
   2fc4c2dda:	8b 85 3c 01 00 00    	mov    eax,DWORD PTR [rbp+0x13c]
   2fc4c2de0:	8b 8d 40 01 00 00    	mov    ecx,DWORD PTR [rbp+0x140]
   2fc4c2de6:	39 c8                	cmp    eax,ecx
   2fc4c2de8:	0f 92 c2             	setb   dl
   2fc4c2deb:	80 e2 01             	and    dl,0x1
   2fc4c2dee:	88 95 47 01 00 00    	mov    BYTE PTR [rbp+0x147],dl
   2fc4c2df4:	c7 45 00 27 b1 1f 9f 	mov    DWORD PTR [rbp+0x0],0x9f1fb127
   2fc4c2dfb:	e9 7d 3e 00 00       	jmp    2fc4c6c7d <DllRegisterServer+0x56dd>
   2fc4c2e00:	8a 85 47 01 00 00    	mov    al,BYTE PTR [rbp+0x147]
   2fc4c2e06:	a8 01                	test   al,0x1
   2fc4c2e08:	b9 a0 25 8f 14       	mov    ecx,0x148f25a0
   2fc4c2e0d:	ba 2d 39 c7 36       	mov    edx,0x36c7392d
   2fc4c2e12:	0f 45 d1             	cmovne edx,ecx
   2fc4c2e15:	89 55 00             	mov    DWORD PTR [rbp+0x0],edx
   2fc4c2e18:	e9 60 3e 00 00       	jmp    2fc4c6c7d <DllRegisterServer+0x56dd>
   2fc4c2e1d:	48 8b 45 08          	mov    rax,QWORD PTR [rbp+0x8]
   2fc4c2e21:	48 8b 00             	mov    rax,QWORD PTR [rax]
   2fc4c2e24:	48 89 85 48 01 00 00 	mov    QWORD PTR [rbp+0x148],rax
   2fc4c2e2b:	c7 45 00 f2 d7 d8 7a 	mov    DWORD PTR [rbp+0x0],0x7ad8d7f2
   2fc4c2e32:	e9 46 3e 00 00       	jmp    2fc4c6c7d <DllRegisterServer+0x56dd>
   2fc4c2e37:	48 8b 45 18          	mov    rax,QWORD PTR [rbp+0x18]
   2fc4c2e3b:	8b 08                	mov    ecx,DWORD PTR [rax]
   2fc4c2e3d:	89 8d 54 01 00 00    	mov    DWORD PTR [rbp+0x154],ecx
   2fc4c2e43:	c7 45 00 a2 91 82 41 	mov    DWORD PTR [rbp+0x0],0x418291a2
   2fc4c2e4a:	e9 2e 3e 00 00       	jmp    2fc4c6c7d <DllRegisterServer+0x56dd>
   2fc4c2e4f:	8b 85 54 01 00 00    	mov    eax,DWORD PTR [rbp+0x154]
   2fc4c2e55:	31 d2                	xor    edx,edx
   2fc4c2e57:	b9 10 27 00 00       	mov    ecx,0x2710
   2fc4c2e5c:	f7 f1                	div    ecx
   2fc4c2e5e:	89 d1                	mov    ecx,edx
   2fc4c2e60:	41 89 c8             	mov    r8d,ecx
   2fc4c2e63:	4c 8b 8d 48 01 00 00 	mov    r9,QWORD PTR [rbp+0x148]
   2fc4c2e6a:	47 8a 14 01          	mov    r10b,BYTE PTR [r9+r8*1]
   2fc4c2e6e:	44 88 95 5b 01 00 00 	mov    BYTE PTR [rbp+0x15b],r10b
   2fc4c2e75:	c7 45 00 fe 80 c7 8d 	mov    DWORD PTR [rbp+0x0],0x8dc780fe
   2fc4c2e7c:	e9 fc 3d 00 00       	jmp    2fc4c6c7d <DllRegisterServer+0x56dd>
   2fc4c2e81:	8a 85 5b 01 00 00    	mov    al,BYTE PTR [rbp+0x15b]
   2fc4c2e87:	0f b6 c8             	movzx  ecx,al
   2fc4c2e8a:	89 8d 5c 01 00 00    	mov    DWORD PTR [rbp+0x15c],ecx
   2fc4c2e90:	c7 45 00 52 36 0b 10 	mov    DWORD PTR [rbp+0x0],0x100b3652
   2fc4c2e97:	e9 e1 3d 00 00       	jmp    2fc4c6c7d <DllRegisterServer+0x56dd>
   2fc4c2e9c:	48 8b 45 10          	mov    rax,QWORD PTR [rbp+0x10]
   2fc4c2ea0:	48 8b 00             	mov    rax,QWORD PTR [rax]
   2fc4c2ea3:	48 89 85 60 01 00 00 	mov    QWORD PTR [rbp+0x160],rax
   2fc4c2eaa:	c7 45 00 38 9c ea cf 	mov    DWORD PTR [rbp+0x0],0xcfea9c38
   2fc4c2eb1:	e9 c7 3d 00 00       	jmp    2fc4c6c7d <DllRegisterServer+0x56dd>
   2fc4c2eb6:	48 8b 45 18          	mov    rax,QWORD PTR [rbp+0x18]
   2fc4c2eba:	8b 08                	mov    ecx,DWORD PTR [rax]
   2fc4c2ebc:	89 8d 6c 01 00 00    	mov    DWORD PTR [rbp+0x16c],ecx
   2fc4c2ec2:	c7 45 00 b1 19 8a 0c 	mov    DWORD PTR [rbp+0x0],0xc8a19b1
   2fc4c2ec9:	e9 af 3d 00 00       	jmp    2fc4c6c7d <DllRegisterServer+0x56dd>
   2fc4c2ece:	8b 85 6c 01 00 00    	mov    eax,DWORD PTR [rbp+0x16c]
   2fc4c2ed4:	89 c0                	mov    eax,eax
   2fc4c2ed6:	89 c1                	mov    ecx,eax
   2fc4c2ed8:	48 89 8d 70 01 00 00 	mov    QWORD PTR [rbp+0x170],rcx
   2fc4c2edf:	c7 45 00 4d 05 62 6a 	mov    DWORD PTR [rbp+0x0],0x6a62054d
   2fc4c2ee6:	e9 92 3d 00 00       	jmp    2fc4c6c7d <DllRegisterServer+0x56dd>
   2fc4c2eeb:	48 8b 85 60 01 00 00 	mov    rax,QWORD PTR [rbp+0x160]
   2fc4c2ef2:	48 8b 8d 70 01 00 00 	mov    rcx,QWORD PTR [rbp+0x170]
   2fc4c2ef9:	48 01 c8             	add    rax,rcx
   2fc4c2efc:	48 89 85 78 01 00 00 	mov    QWORD PTR [rbp+0x178],rax
   2fc4c2f03:	48 8b 85 78 01 00 00 	mov    rax,QWORD PTR [rbp+0x178]
   2fc4c2f0a:	8a 10                	mov    dl,BYTE PTR [rax]
   2fc4c2f0c:	88 95 87 01 00 00    	mov    BYTE PTR [rbp+0x187],dl
   2fc4c2f12:	c7 45 00 05 82 8d e1 	mov    DWORD PTR [rbp+0x0],0xe18d8205
   2fc4c2f19:	e9 5f 3d 00 00       	jmp    2fc4c6c7d <DllRegisterServer+0x56dd>
   2fc4c2f1e:	8a 85 87 01 00 00    	mov    al,BYTE PTR [rbp+0x187]
   2fc4c2f24:	0f b6 c8             	movzx  ecx,al
   2fc4c2f27:	89 8d 88 01 00 00    	mov    DWORD PTR [rbp+0x188],ecx
   2fc4c2f2d:	c7 45 00 95 5b 54 c4 	mov    DWORD PTR [rbp+0x0],0xc4545b95
   2fc4c2f34:	e9 44 3d 00 00       	jmp    2fc4c6c7d <DllRegisterServer+0x56dd>
   2fc4c2f39:	8b 85 5c 01 00 00    	mov    eax,DWORD PTR [rbp+0x15c]
   2fc4c2f3f:	8b 8d 88 01 00 00    	mov    ecx,DWORD PTR [rbp+0x188]
   2fc4c2f45:	89 ca                	mov    edx,ecx
   2fc4c2f47:	83 f2 ff             	xor    edx,0xffffffff
   2fc4c2f4a:	81 e2 4f 08 e3 94    	and    edx,0x94e3084f
   2fc4c2f50:	41 b8 ff ff ff ff    	mov    r8d,0xffffffff
   2fc4c2f56:	45 89 c1             	mov    r9d,r8d
   2fc4c2f59:	41 81 f1 4f 08 e3 94 	xor    r9d,0x94e3084f
   2fc4c2f60:	41 89 ca             	mov    r10d,ecx
   2fc4c2f63:	45 21 ca             	and    r10d,r9d
   2fc4c2f66:	45 89 c3             	mov    r11d,r8d
   2fc4c2f69:	41 81 f3 ff ff ff ff 	xor    r11d,0xffffffff
   2fc4c2f70:	41 81 e3 4f 08 e3 94 	and    r11d,0x94e3084f
   2fc4c2f77:	41 81 e1 ff ff ff ff 	and    r9d,0xffffffff
   2fc4c2f7e:	44 09 d2             	or     edx,r10d
   2fc4c2f81:	45 09 cb             	or     r11d,r9d
   2fc4c2f84:	44 31 da             	xor    edx,r11d
   2fc4c2f87:	83 f2 ff             	xor    edx,0xffffffff
   2fc4c2f8a:	81 f2 b8 5a 8d 45    	xor    edx,0x458d5ab8
   2fc4c2f90:	81 e2 b8 5a 8d 45    	and    edx,0x458d5ab8
   2fc4c2f96:	45 89 c1             	mov    r9d,r8d
   2fc4c2f99:	41 81 f1 b8 5a 8d 45 	xor    r9d,0x458d5ab8
   2fc4c2fa0:	41 81 e1 ff ff ff ff 	and    r9d,0xffffffff
   2fc4c2fa7:	45 89 c2             	mov    r10d,r8d
   2fc4c2faa:	41 81 f2 ff ff ff ff 	xor    r10d,0xffffffff
   2fc4c2fb1:	41 81 e2 b8 5a 8d 45 	and    r10d,0x458d5ab8
   2fc4c2fb8:	45 09 d1             	or     r9d,r10d
   2fc4c2fbb:	45 89 ca             	mov    r10d,r9d
   2fc4c2fbe:	41 83 f2 ff          	xor    r10d,0xffffffff
   2fc4c2fc2:	41 89 cb             	mov    r11d,ecx
   2fc4c2fc5:	45 31 d3             	xor    r11d,r10d
   2fc4c2fc8:	41 21 cb             	and    r11d,ecx
   2fc4c2fcb:	45 89 c2             	mov    r10d,r8d
   2fc4c2fce:	41 81 f2 ff ff ff ff 	xor    r10d,0xffffffff
   2fc4c2fd5:	41 81 e2 ff ff ff ff 	and    r10d,0xffffffff
   2fc4c2fdc:	44 89 c6             	mov    esi,r8d
   2fc4c2fdf:	81 f6 ff ff ff ff    	xor    esi,0xffffffff
   2fc4c2fe5:	81 e6 ff ff ff ff    	and    esi,0xffffffff
   2fc4c2feb:	41 09 f2             	or     r10d,esi
   2fc4c2fee:	44 89 c6             	mov    esi,r8d
   2fc4c2ff1:	81 f6 b8 5a 8d 45    	xor    esi,0x458d5ab8
   2fc4c2ff7:	44 89 d7             	mov    edi,r10d
   2fc4c2ffa:	31 f7                	xor    edi,esi
   2fc4c2ffc:	44 21 d7             	and    edi,r10d
   2fc4c2fff:	41 83 f1 ff          	xor    r9d,0xffffffff
   2fc4c3003:	41 81 f1 ff ff ff ff 	xor    r9d,0xffffffff
   2fc4c300a:	41 83 e1 ff          	and    r9d,0xffffffff
   2fc4c300e:	41 89 d2             	mov    r10d,edx
   2fc4c3011:	45 21 da             	and    r10d,r11d
   2fc4c3014:	44 31 da             	xor    edx,r11d
   2fc4c3017:	41 09 d2             	or     r10d,edx
   2fc4c301a:	89 fa                	mov    edx,edi
   2fc4c301c:	83 f2 ff             	xor    edx,0xffffffff
   2fc4c301f:	45 89 cb             	mov    r11d,r9d
   2fc4c3022:	41 83 f3 ff          	xor    r11d,0xffffffff
   2fc4c3026:	44 89 c6             	mov    esi,r8d
   2fc4c3029:	81 f6 39 19 9a a6    	xor    esi,0xa69a1939
   2fc4c302f:	89 d3                	mov    ebx,edx
   2fc4c3031:	81 e3 39 19 9a a6    	and    ebx,0xa69a1939
   2fc4c3037:	21 f7                	and    edi,esi
   2fc4c3039:	45 89 de             	mov    r14d,r11d
   2fc4c303c:	41 81 e6 39 19 9a a6 	and    r14d,0xa69a1939
   2fc4c3043:	41 21 f1             	and    r9d,esi
   2fc4c3046:	09 fb                	or     ebx,edi
   2fc4c3048:	45 09 ce             	or     r14d,r9d
   2fc4c304b:	44 31 f3             	xor    ebx,r14d
   2fc4c304e:	44 09 da             	or     edx,r11d
   2fc4c3051:	83 f2 ff             	xor    edx,0xffffffff
   2fc4c3054:	81 ce 39 19 9a a6    	or     esi,0xa69a1939
   2fc4c305a:	21 f2                	and    edx,esi
   2fc4c305c:	09 d3                	or     ebx,edx
   2fc4c305e:	44 89 d2             	mov    edx,r10d
   2fc4c3061:	83 f2 ff             	xor    edx,0xffffffff
   2fc4c3064:	81 e2 83 c0 40 e2    	and    edx,0xe240c083
   2fc4c306a:	45 89 c1             	mov    r9d,r8d
   2fc4c306d:	41 81 f1 83 c0 40 e2 	xor    r9d,0xe240c083
   2fc4c3074:	45 21 ca             	and    r10d,r9d
   2fc4c3077:	41 89 db             	mov    r11d,ebx
   2fc4c307a:	41 83 f3 ff          	xor    r11d,0xffffffff
   2fc4c307e:	41 81 e3 83 c0 40 e2 	and    r11d,0xe240c083
   2fc4c3085:	44 21 cb             	and    ebx,r9d
   2fc4c3088:	44 09 d2             	or     edx,r10d
   2fc4c308b:	41 09 db             	or     r11d,ebx
   2fc4c308e:	44 31 da             	xor    edx,r11d
   2fc4c3091:	41 89 c1             	mov    r9d,eax
   2fc4c3094:	41 83 f1 ff          	xor    r9d,0xffffffff
   2fc4c3098:	41 81 e1 ab e8 39 51 	and    r9d,0x5139e8ab
   2fc4c309f:	45 89 c2             	mov    r10d,r8d
   2fc4c30a2:	41 81 f2 ab e8 39 51 	xor    r10d,0x5139e8ab
   2fc4c30a9:	41 89 c3             	mov    r11d,eax
   2fc4c30ac:	45 21 d3             	and    r11d,r10d
   2fc4c30af:	44 89 c6             	mov    esi,r8d
   2fc4c30b2:	81 f6 ff ff ff ff    	xor    esi,0xffffffff
   2fc4c30b8:	81 e6 ab e8 39 51    	and    esi,0x5139e8ab
   2fc4c30be:	41 81 e2 ff ff ff ff 	and    r10d,0xffffffff
   2fc4c30c5:	45 09 d9             	or     r9d,r11d
   2fc4c30c8:	44 09 d6             	or     esi,r10d
   2fc4c30cb:	41 31 f1             	xor    r9d,esi
   2fc4c30ce:	41 89 d2             	mov    r10d,edx
   2fc4c30d1:	41 83 f2 ff          	xor    r10d,0xffffffff
   2fc4c30d5:	41 81 e2 ff ff ff ff 	and    r10d,0xffffffff
   2fc4c30dc:	45 89 c3             	mov    r11d,r8d
   2fc4c30df:	41 81 f3 ff ff ff ff 	xor    r11d,0xffffffff
   2fc4c30e6:	44 21 da             	and    edx,r11d
   2fc4c30e9:	41 09 d2             	or     r10d,edx
   2fc4c30ec:	44 89 c2             	mov    edx,r8d
   2fc4c30ef:	81 f2 56 0b 02 51    	xor    edx,0x51020b56
   2fc4c30f5:	81 e2 92 a2 6a b5    	and    edx,0xb56aa292
   2fc4c30fb:	45 89 c3             	mov    r11d,r8d
   2fc4c30fe:	41 81 f3 92 a2 6a b5 	xor    r11d,0xb56aa292
   2fc4c3105:	44 89 de             	mov    esi,r11d
   2fc4c3108:	81 e6 56 0b 02 51    	and    esi,0x51020b56
   2fc4c310e:	44 89 c7             	mov    edi,r8d
   2fc4c3111:	81 f7 ff ff ff ff    	xor    edi,0xffffffff
   2fc4c3117:	81 e7 92 a2 6a b5    	and    edi,0xb56aa292
   2fc4c311d:	41 81 e3 ff ff ff ff 	and    r11d,0xffffffff
   2fc4c3124:	09 f2                	or     edx,esi
   2fc4c3126:	44 09 df             	or     edi,r11d
   2fc4c3129:	31 fa                	xor    edx,edi
   2fc4c312b:	45 89 cb             	mov    r11d,r9d
   2fc4c312e:	41 83 f3 ff          	xor    r11d,0xffffffff
   2fc4c3132:	44 89 d6             	mov    esi,r10d
   2fc4c3135:	83 f6 ff             	xor    esi,0xffffffff
   2fc4c3138:	44 89 c7             	mov    edi,r8d
   2fc4c313b:	81 f7 ae 0c 41 75    	xor    edi,0x75410cae
   2fc4c3141:	44 89 db             	mov    ebx,r11d
   2fc4c3144:	81 e3 ae 0c 41 75    	and    ebx,0x75410cae
   2fc4c314a:	41 21 f9             	and    r9d,edi
   2fc4c314d:	41 89 f6             	mov    r14d,esi
   2fc4c3150:	41 81 e6 ae 0c 41 75 	and    r14d,0x75410cae
   2fc4c3157:	41 21 fa             	and    r10d,edi
   2fc4c315a:	44 09 cb             	or     ebx,r9d
   2fc4c315d:	45 09 d6             	or     r14d,r10d
   2fc4c3160:	44 31 f3             	xor    ebx,r14d
   2fc4c3163:	41 09 f3             	or     r11d,esi
   2fc4c3166:	41 83 f3 ff          	xor    r11d,0xffffffff
   2fc4c316a:	81 cf ae 0c 41 75    	or     edi,0x75410cae
   2fc4c3170:	41 21 fb             	and    r11d,edi
   2fc4c3173:	44 09 db             	or     ebx,r11d
   2fc4c3176:	45 89 c1             	mov    r9d,r8d
   2fc4c3179:	41 81 f1 56 0b 02 51 	xor    r9d,0x51020b56
   2fc4c3180:	41 89 d2             	mov    r10d,edx
   2fc4c3183:	41 83 f2 ff          	xor    r10d,0xffffffff
   2fc4c3187:	45 89 c3             	mov    r11d,r8d
   2fc4c318a:	41 81 f3 14 c2 c5 84 	xor    r11d,0x84c5c214
   2fc4c3191:	44 89 ce             	mov    esi,r9d
   2fc4c3194:	81 e6 14 c2 c5 84    	and    esi,0x84c5c214
   2fc4c319a:	44 89 df             	mov    edi,r11d
   2fc4c319d:	81 e7 56 0b 02 51    	and    edi,0x51020b56
   2fc4c31a3:	45 89 d6             	mov    r14d,r10d
   2fc4c31a6:	41 81 e6 14 c2 c5 84 	and    r14d,0x84c5c214
   2fc4c31ad:	44 21 da             	and    edx,r11d
   2fc4c31b0:	09 fe                	or     esi,edi
   2fc4c31b2:	41 09 d6             	or     r14d,edx
   2fc4c31b5:	44 31 f6             	xor    esi,r14d
   2fc4c31b8:	45 09 d1             	or     r9d,r10d
   2fc4c31bb:	41 83 f1 ff          	xor    r9d,0xffffffff
   2fc4c31bf:	41 81 cb 14 c2 c5 84 	or     r11d,0x84c5c214
   2fc4c31c6:	45 21 d9             	and    r9d,r11d
   2fc4c31c9:	44 09 ce             	or     esi,r9d
   2fc4c31cc:	89 da                	mov    edx,ebx
   2fc4c31ce:	83 f2 ff             	xor    edx,0xffffffff
   2fc4c31d1:	81 e2 ff ff ff ff    	and    edx,0xffffffff
   2fc4c31d7:	45 89 c1             	mov    r9d,r8d
   2fc4c31da:	41 81 f1 ff ff ff ff 	xor    r9d,0xffffffff
   2fc4c31e1:	44 21 cb             	and    ebx,r9d
   2fc4c31e4:	09 da                	or     edx,ebx
   2fc4c31e6:	83 f2 ff             	xor    edx,0xffffffff
   2fc4c31e9:	83 f6 ff             	xor    esi,0xffffffff
   2fc4c31ec:	45 89 c1             	mov    r9d,r8d
   2fc4c31ef:	41 81 f1 fb 07 c2 a3 	xor    r9d,0xa3c207fb
   2fc4c31f6:	09 f2                	or     edx,esi
   2fc4c31f8:	41 81 c9 fb 07 c2 a3 	or     r9d,0xa3c207fb
   2fc4c31ff:	83 f2 ff             	xor    edx,0xffffffff
   2fc4c3202:	44 21 ca             	and    edx,r9d
   2fc4c3205:	41 89 c1             	mov    r9d,eax
   2fc4c3208:	41 83 f1 ff          	xor    r9d,0xffffffff
   2fc4c320c:	41 81 e1 2e b8 ad c4 	and    r9d,0xc4adb82e
   2fc4c3213:	45 89 c2             	mov    r10d,r8d
   2fc4c3216:	41 81 f2 2e b8 ad c4 	xor    r10d,0xc4adb82e
   2fc4c321d:	41 89 c3             	mov    r11d,eax
   2fc4c3220:	45 21 d3             	and    r11d,r10d
   2fc4c3223:	44 89 c6             	mov    esi,r8d
   2fc4c3226:	81 f6 ff ff ff ff    	xor    esi,0xffffffff
   2fc4c322c:	81 e6 2e b8 ad c4    	and    esi,0xc4adb82e
   2fc4c3232:	41 81 e2 ff ff ff ff 	and    r10d,0xffffffff
   2fc4c3239:	45 09 d9             	or     r9d,r11d
   2fc4c323c:	44 09 d6             	or     esi,r10d
   2fc4c323f:	41 31 f1             	xor    r9d,esi
   2fc4c3242:	45 89 c2             	mov    r10d,r8d
   2fc4c3245:	41 81 f2 ff ff ff ff 	xor    r10d,0xffffffff
   2fc4c324c:	41 83 f1 ff          	xor    r9d,0xffffffff
   2fc4c3250:	45 89 c3             	mov    r11d,r8d
   2fc4c3253:	41 81 f3 76 6f b5 5c 	xor    r11d,0x5cb56f76
   2fc4c325a:	45 09 ca             	or     r10d,r9d
   2fc4c325d:	41 81 cb 76 6f b5 5c 	or     r11d,0x5cb56f76
   2fc4c3264:	41 83 f2 ff          	xor    r10d,0xffffffff
   2fc4c3268:	45 21 da             	and    r10d,r11d
   2fc4c326b:	45 89 c1             	mov    r9d,r8d
   2fc4c326e:	41 81 f1 ff ff ff ff 	xor    r9d,0xffffffff
   2fc4c3275:	41 81 e1 ff ff ff ff 	and    r9d,0xffffffff
   2fc4c327c:	45 89 c3             	mov    r11d,r8d
   2fc4c327f:	41 81 f3 ff ff ff ff 	xor    r11d,0xffffffff
   2fc4c3286:	41 81 e3 ff ff ff ff 	and    r11d,0xffffffff
   2fc4c328d:	45 09 d9             	or     r9d,r11d
   2fc4c3290:	41 83 f1 ff          	xor    r9d,0xffffffff
   2fc4c3294:	41 89 c3             	mov    r11d,eax
   2fc4c3297:	45 31 cb             	xor    r11d,r9d
   2fc4c329a:	41 21 c3             	and    r11d,eax
   2fc4c329d:	44 89 d0             	mov    eax,r10d
   2fc4c32a0:	44 21 d8             	and    eax,r11d
   2fc4c32a3:	45 31 da             	xor    r10d,r11d
   2fc4c32a6:	44 09 d0             	or     eax,r10d
   2fc4c32a9:	41 89 c1             	mov    r9d,eax
   2fc4c32ac:	41 83 f1 ff          	xor    r9d,0xffffffff
   2fc4c32b0:	41 81 e1 fb 5b b9 d3 	and    r9d,0xd3b95bfb
   2fc4c32b7:	45 89 c2             	mov    r10d,r8d
   2fc4c32ba:	41 81 f2 fb 5b b9 d3 	xor    r10d,0xd3b95bfb
   2fc4c32c1:	44 21 d0             	and    eax,r10d
   2fc4c32c4:	45 89 c3             	mov    r11d,r8d
   2fc4c32c7:	41 81 f3 ff ff ff ff 	xor    r11d,0xffffffff
   2fc4c32ce:	41 81 e3 fb 5b b9 d3 	and    r11d,0xd3b95bfb
   2fc4c32d5:	41 81 e2 ff ff ff ff 	and    r10d,0xffffffff
   2fc4c32dc:	41 09 c1             	or     r9d,eax
   2fc4c32df:	45 09 d3             	or     r11d,r10d
   2fc4c32e2:	45 31 d9             	xor    r9d,r11d
   2fc4c32e5:	89 c8                	mov    eax,ecx
   2fc4c32e7:	83 f0 ff             	xor    eax,0xffffffff
   2fc4c32ea:	45 89 ca             	mov    r10d,r9d
   2fc4c32ed:	41 21 c2             	and    r10d,eax
   2fc4c32f0:	41 83 f1 ff          	xor    r9d,0xffffffff
   2fc4c32f4:	89 c8                	mov    eax,ecx
   2fc4c32f6:	44 21 c8             	and    eax,r9d
   2fc4c32f9:	41 09 c2             	or     r10d,eax
   2fc4c32fc:	41 83 f2 ff          	xor    r10d,0xffffffff
   2fc4c3300:	83 f1 ff             	xor    ecx,0xffffffff
   2fc4c3303:	44 89 c0             	mov    eax,r8d
   2fc4c3306:	35 71 88 5a 76       	xor    eax,0x765a8871
   2fc4c330b:	41 09 ca             	or     r10d,ecx
   2fc4c330e:	0d 71 88 5a 76       	or     eax,0x765a8871
   2fc4c3313:	41 83 f2 ff          	xor    r10d,0xffffffff
   2fc4c3317:	41 21 c2             	and    r10d,eax
   2fc4c331a:	89 d0                	mov    eax,edx
   2fc4c331c:	83 f0 ff             	xor    eax,0xffffffff
   2fc4c331f:	25 fb 06 a8 09       	and    eax,0x9a806fb
   2fc4c3324:	44 89 c1             	mov    ecx,r8d
   2fc4c3327:	81 f1 fb 06 a8 09    	xor    ecx,0x9a806fb
   2fc4c332d:	41 89 d1             	mov    r9d,edx
   2fc4c3330:	41 21 c9             	and    r9d,ecx
   2fc4c3333:	45 89 c3             	mov    r11d,r8d
   2fc4c3336:	41 81 f3 ff ff ff ff 	xor    r11d,0xffffffff
   2fc4c333d:	41 81 e3 fb 06 a8 09 	and    r11d,0x9a806fb
   2fc4c3344:	81 e1 ff ff ff ff    	and    ecx,0xffffffff
   2fc4c334a:	44 09 c8             	or     eax,r9d
   2fc4c334d:	41 09 cb             	or     r11d,ecx
   2fc4c3350:	44 31 d8             	xor    eax,r11d
   2fc4c3353:	44 89 d1             	mov    ecx,r10d
   2fc4c3356:	83 f1 ff             	xor    ecx,0xffffffff
   2fc4c3359:	81 e1 2a 54 fa 2f    	and    ecx,0x2ffa542a
   2fc4c335f:	45 89 c1             	mov    r9d,r8d
   2fc4c3362:	41 81 f1 2a 54 fa 2f 	xor    r9d,0x2ffa542a
   2fc4c3369:	45 89 d3             	mov    r11d,r10d
   2fc4c336c:	45 21 cb             	and    r11d,r9d
   2fc4c336f:	44 89 c6             	mov    esi,r8d
   2fc4c3372:	81 f6 ff ff ff ff    	xor    esi,0xffffffff
   2fc4c3378:	81 e6 2a 54 fa 2f    	and    esi,0x2ffa542a
   2fc4c337e:	41 81 e1 ff ff ff ff 	and    r9d,0xffffffff
   2fc4c3385:	44 09 d9             	or     ecx,r11d
   2fc4c3388:	44 09 ce             	or     esi,r9d
   2fc4c338b:	31 f1                	xor    ecx,esi
   2fc4c338d:	45 89 c1             	mov    r9d,r8d
   2fc4c3390:	41 81 f1 11 c2 ce 45 	xor    r9d,0x45cec211
   2fc4c3397:	41 81 e1 ff ff ff ff 	and    r9d,0xffffffff
   2fc4c339e:	45 89 c3             	mov    r11d,r8d
   2fc4c33a1:	41 81 f3 ff ff ff ff 	xor    r11d,0xffffffff
   2fc4c33a8:	41 81 e3 11 c2 ce 45 	and    r11d,0x45cec211
   2fc4c33af:	45 09 d9             	or     r9d,r11d
   2fc4c33b2:	45 89 c3             	mov    r11d,r8d
   2fc4c33b5:	41 81 f3 11 c2 ce 45 	xor    r11d,0x45cec211
   2fc4c33bc:	89 c6                	mov    esi,eax
   2fc4c33be:	44 31 de             	xor    esi,r11d
   2fc4c33c1:	21 c6                	and    esi,eax
   2fc4c33c3:	45 89 cb             	mov    r11d,r9d
   2fc4c33c6:	41 83 f3 ff          	xor    r11d,0xffffffff
   2fc4c33ca:	89 d7                	mov    edi,edx
   2fc4c33cc:	44 31 df             	xor    edi,r11d
   2fc4c33cf:	21 d7                	and    edi,edx
   2fc4c33d1:	44 89 c2             	mov    edx,r8d
   2fc4c33d4:	81 f2 11 c2 ce 45    	xor    edx,0x45cec211
   2fc4c33da:	41 89 cb             	mov    r11d,ecx
   2fc4c33dd:	41 31 d3             	xor    r11d,edx
   2fc4c33e0:	41 21 cb             	and    r11d,ecx
   2fc4c33e3:	41 83 f2 ff          	xor    r10d,0xffffffff
   2fc4c33e7:	44 89 ca             	mov    edx,r9d
   2fc4c33ea:	83 f2 ff             	xor    edx,0xffffffff
   2fc4c33ed:	44 89 c3             	mov    ebx,r8d
   2fc4c33f0:	81 f3 18 cc cb 39    	xor    ebx,0x39cbcc18
   2fc4c33f6:	41 09 d2             	or     r10d,edx
   2fc4c33f9:	81 cb 18 cc cb 39    	or     ebx,0x39cbcc18
   2fc4c33ff:	41 83 f2 ff          	xor    r10d,0xffffffff
   2fc4c3403:	41 21 da             	and    r10d,ebx
   2fc4c3406:	89 f2                	mov    edx,esi
   2fc4c3408:	83 f2 ff             	xor    edx,0xffffffff
   2fc4c340b:	89 fb                	mov    ebx,edi
   2fc4c340d:	83 f3 ff             	xor    ebx,0xffffffff
   2fc4c3410:	45 89 c6             	mov    r14d,r8d
   2fc4c3413:	41 81 f6 74 e1 47 fe 	xor    r14d,0xfe47e174
   2fc4c341a:	41 89 d7             	mov    r15d,edx
   2fc4c341d:	41 81 e7 74 e1 47 fe 	and    r15d,0xfe47e174
   2fc4c3424:	44 21 f6             	and    esi,r14d
   2fc4c3427:	41 89 dc             	mov    r12d,ebx
   2fc4c342a:	41 81 e4 74 e1 47 fe 	and    r12d,0xfe47e174
   2fc4c3431:	44 21 f7             	and    edi,r14d
   2fc4c3434:	41 09 f7             	or     r15d,esi
   2fc4c3437:	41 09 fc             	or     r12d,edi
   2fc4c343a:	45 31 e7             	xor    r15d,r12d
   2fc4c343d:	09 da                	or     edx,ebx
   2fc4c343f:	83 f2 ff             	xor    edx,0xffffffff
   2fc4c3442:	41 81 ce 74 e1 47 fe 	or     r14d,0xfe47e174
   2fc4c3449:	44 21 f2             	and    edx,r14d
   2fc4c344c:	41 09 d7             	or     r15d,edx
   2fc4c344f:	44 89 da             	mov    edx,r11d
   2fc4c3452:	83 f2 ff             	xor    edx,0xffffffff
   2fc4c3455:	44 89 d6             	mov    esi,r10d
   2fc4c3458:	83 f6 ff             	xor    esi,0xffffffff
   2fc4c345b:	44 89 c7             	mov    edi,r8d
   2fc4c345e:	81 f7 21 f4 4e 3f    	xor    edi,0x3f4ef421
   2fc4c3464:	89 d3                	mov    ebx,edx
   2fc4c3466:	81 e3 21 f4 4e 3f    	and    ebx,0x3f4ef421
   2fc4c346c:	41 21 fb             	and    r11d,edi
   2fc4c346f:	41 89 f6             	mov    r14d,esi
   2fc4c3472:	41 81 e6 21 f4 4e 3f 	and    r14d,0x3f4ef421
   2fc4c3479:	41 21 fa             	and    r10d,edi
   2fc4c347c:	44 09 db             	or     ebx,r11d
   2fc4c347f:	45 09 d6             	or     r14d,r10d
   2fc4c3482:	44 31 f3             	xor    ebx,r14d
   2fc4c3485:	09 f2                	or     edx,esi
   2fc4c3487:	83 f2 ff             	xor    edx,0xffffffff
   2fc4c348a:	81 cf 21 f4 4e 3f    	or     edi,0x3f4ef421
   2fc4c3490:	21 fa                	and    edx,edi
   2fc4c3492:	09 d3                	or     ebx,edx
   2fc4c3494:	44 89 fa             	mov    edx,r15d
   2fc4c3497:	83 f2 ff             	xor    edx,0xffffffff
   2fc4c349a:	81 e2 67 d3 f0 50    	and    edx,0x50f0d367
   2fc4c34a0:	45 89 c2             	mov    r10d,r8d
   2fc4c34a3:	41 81 f2 67 d3 f0 50 	xor    r10d,0x50f0d367
   2fc4c34aa:	45 21 d7             	and    r15d,r10d
   2fc4c34ad:	41 89 db             	mov    r11d,ebx
   2fc4c34b0:	41 83 f3 ff          	xor    r11d,0xffffffff
   2fc4c34b4:	41 81 e3 67 d3 f0 50 	and    r11d,0x50f0d367
   2fc4c34bb:	44 21 d3             	and    ebx,r10d
   2fc4c34be:	44 09 fa             	or     edx,r15d
   2fc4c34c1:	41 09 db             	or     r11d,ebx
   2fc4c34c4:	44 31 da             	xor    edx,r11d
   2fc4c34c7:	41 89 c2             	mov    r10d,eax
   2fc4c34ca:	41 83 f2 ff          	xor    r10d,0xffffffff
   2fc4c34ce:	41 89 cb             	mov    r11d,ecx
   2fc4c34d1:	41 83 f3 ff          	xor    r11d,0xffffffff
   2fc4c34d5:	44 89 c6             	mov    esi,r8d
   2fc4c34d8:	81 f6 0d d5 4a fd    	xor    esi,0xfd4ad50d
   2fc4c34de:	44 89 d7             	mov    edi,r10d
   2fc4c34e1:	81 e7 0d d5 4a fd    	and    edi,0xfd4ad50d
   2fc4c34e7:	21 f0                	and    eax,esi
   2fc4c34e9:	44 89 db             	mov    ebx,r11d
   2fc4c34ec:	81 e3 0d d5 4a fd    	and    ebx,0xfd4ad50d
   2fc4c34f2:	21 f1                	and    ecx,esi
   2fc4c34f4:	09 c7                	or     edi,eax
   2fc4c34f6:	09 cb                	or     ebx,ecx
   2fc4c34f8:	31 df                	xor    edi,ebx
   2fc4c34fa:	45 09 da             	or     r10d,r11d
   2fc4c34fd:	41 83 f2 ff          	xor    r10d,0xffffffff
   2fc4c3501:	81 ce 0d d5 4a fd    	or     esi,0xfd4ad50d
   2fc4c3507:	41 21 f2             	and    r10d,esi
   2fc4c350a:	44 09 d7             	or     edi,r10d
   2fc4c350d:	89 f8                	mov    eax,edi
   2fc4c350f:	83 f0 ff             	xor    eax,0xffffffff
   2fc4c3512:	25 ff ff ff ff       	and    eax,0xffffffff
   2fc4c3517:	44 89 c1             	mov    ecx,r8d
   2fc4c351a:	81 f1 ff ff ff ff    	xor    ecx,0xffffffff
   2fc4c3520:	21 cf                	and    edi,ecx
   2fc4c3522:	09 f8                	or     eax,edi
   2fc4c3524:	44 89 c9             	mov    ecx,r9d
   2fc4c3527:	81 e1 11 c2 ce 45    	and    ecx,0x45cec211
   2fc4c352d:	41 81 f1 11 c2 ce 45 	xor    r9d,0x45cec211
   2fc4c3534:	44 09 c9             	or     ecx,r9d
   2fc4c3537:	83 f1 ff             	xor    ecx,0xffffffff
   2fc4c353a:	41 89 c1             	mov    r9d,eax
   2fc4c353d:	41 31 c9             	xor    r9d,ecx
   2fc4c3540:	41 21 c1             	and    r9d,eax
   2fc4c3543:	89 d0                	mov    eax,edx
   2fc4c3545:	83 f0 ff             	xor    eax,0xffffffff
   2fc4c3548:	44 89 c9             	mov    ecx,r9d
   2fc4c354b:	83 f1 ff             	xor    ecx,0xffffffff
   2fc4c354e:	41 81 f0 85 8d 22 b4 	xor    r8d,0xb4228d85
   2fc4c3555:	41 89 c2             	mov    r10d,eax
   2fc4c3558:	41 81 e2 85 8d 22 b4 	and    r10d,0xb4228d85
   2fc4c355f:	44 21 c2             	and    edx,r8d
   2fc4c3562:	41 89 cb             	mov    r11d,ecx
   2fc4c3565:	41 81 e3 85 8d 22 b4 	and    r11d,0xb4228d85
   2fc4c356c:	45 21 c1             	and    r9d,r8d
   2fc4c356f:	41 09 d2             	or     r10d,edx
   2fc4c3572:	45 09 cb             	or     r11d,r9d
   2fc4c3575:	45 31 da             	xor    r10d,r11d
   2fc4c3578:	09 c8                	or     eax,ecx
   2fc4c357a:	83 f0 ff             	xor    eax,0xffffffff
   2fc4c357d:	41 81 c8 85 8d 22 b4 	or     r8d,0xb4228d85
   2fc4c3584:	44 21 c0             	and    eax,r8d
   2fc4c3587:	41 09 c2             	or     r10d,eax
   2fc4c358a:	4c 8b ad 78 01 00 00 	mov    r13,QWORD PTR [rbp+0x178]
   2fc4c3591:	45 88 55 00          	mov    BYTE PTR [r13+0x0],r10b
   2fc4c3595:	c7 45 00 8b af a4 4c 	mov    DWORD PTR [rbp+0x0],0x4ca4af8b
   2fc4c359c:	e9 dc 36 00 00       	jmp    2fc4c6c7d <DllRegisterServer+0x56dd>
   2fc4c35a1:	c7 45 00 23 0f 51 c9 	mov    DWORD PTR [rbp+0x0],0xc9510f23
   2fc4c35a8:	e9 d0 36 00 00       	jmp    2fc4c6c7d <DllRegisterServer+0x56dd>
   2fc4c35ad:	48 8b 45 18          	mov    rax,QWORD PTR [rbp+0x18]
   2fc4c35b1:	8b 08                	mov    ecx,DWORD PTR [rax]
   2fc4c35b3:	89 8d 8c 01 00 00    	mov    DWORD PTR [rbp+0x18c],ecx
   2fc4c35b9:	c7 45 00 fd 74 cd 51 	mov    DWORD PTR [rbp+0x0],0x51cd74fd
   2fc4c35c0:	e9 b8 36 00 00       	jmp    2fc4c6c7d <DllRegisterServer+0x56dd>
   2fc4c35c5:	31 c0                	xor    eax,eax
   2fc4c35c7:	8b 8d 8c 01 00 00    	mov    ecx,DWORD PTR [rbp+0x18c]
   2fc4c35cd:	89 c2                	mov    edx,eax
   2fc4c35cf:	81 ea 61 75 73 fa    	sub    edx,0xfa737561
   2fc4c35d5:	83 c2 00             	add    edx,0x0
   2fc4c35d8:	81 e9 b4 cb 76 a9    	sub    ecx,0xa976cbb4
   2fc4c35de:	29 d1                	sub    ecx,edx
   2fc4c35e0:	81 c1 b4 cb 76 a9    	add    ecx,0xa976cbb4
   2fc4c35e6:	81 c1 d4 7e 52 0c    	add    ecx,0xc527ed4
   2fc4c35ec:	81 e9 92 2e a8 89    	sub    ecx,0x89a82e92
   2fc4c35f2:	81 e9 d4 7e 52 0c    	sub    ecx,0xc527ed4
   2fc4c35f8:	89 c2                	mov    edx,eax
   2fc4c35fa:	29 ca                	sub    edx,ecx
   2fc4c35fc:	89 c1                	mov    ecx,eax
   2fc4c35fe:	83 e9 01             	sub    ecx,0x1
   2fc4c3601:	01 ca                	add    edx,ecx
   2fc4c3603:	89 c1                	mov    ecx,eax
   2fc4c3605:	29 d1                	sub    ecx,edx
   2fc4c3607:	89 c2                	mov    edx,eax
   2fc4c3609:	29 ca                	sub    edx,ecx
   2fc4c360b:	89 c1                	mov    ecx,eax
   2fc4c360d:	81 e9 92 2e a8 89    	sub    ecx,0x89a82e92
   2fc4c3613:	01 ca                	add    edx,ecx
   2fc4c3615:	89 c1                	mov    ecx,eax
   2fc4c3617:	29 d1                	sub    ecx,edx
   2fc4c3619:	81 e9 7a 76 95 1c    	sub    ecx,0x1c95767a
   2fc4c361f:	81 e9 64 53 df ec    	sub    ecx,0xecdf5364
   2fc4c3625:	81 c1 7a 76 95 1c    	add    ecx,0x1c95767a
   2fc4c362b:	81 c1 76 b2 8d 5b    	add    ecx,0x5b8db276
   2fc4c3631:	81 e9 61 75 73 fa    	sub    ecx,0xfa737561
   2fc4c3637:	81 e9 76 b2 8d 5b    	sub    ecx,0x5b8db276
   2fc4c363d:	89 c2                	mov    edx,eax
   2fc4c363f:	29 ca                	sub    edx,ecx
   2fc4c3641:	89 c1                	mov    ecx,eax
   2fc4c3643:	81 e9 64 53 df ec    	sub    ecx,0xecdf5364
   2fc4c3649:	01 ca                	add    edx,ecx
   2fc4c364b:	29 d0                	sub    eax,edx
   2fc4c364d:	89 85 90 01 00 00    	mov    DWORD PTR [rbp+0x190],eax
   2fc4c3653:	c7 45 00 22 9b cd 06 	mov    DWORD PTR [rbp+0x0],0x6cd9b22
   2fc4c365a:	e9 1e 36 00 00       	jmp    2fc4c6c7d <DllRegisterServer+0x56dd>
   2fc4c365f:	48 8b 45 18          	mov    rax,QWORD PTR [rbp+0x18]
   2fc4c3663:	8b 8d 90 01 00 00    	mov    ecx,DWORD PTR [rbp+0x190]
   2fc4c3669:	89 08                	mov    DWORD PTR [rax],ecx
   2fc4c366b:	c7 45 00 d7 c1 df 0b 	mov    DWORD PTR [rbp+0x0],0xbdfc1d7
   2fc4c3672:	e9 06 36 00 00       	jmp    2fc4c6c7d <DllRegisterServer+0x56dd>
   2fc4c3677:	c7 45 00 d5 72 2c 29 	mov    DWORD PTR [rbp+0x0],0x292c72d5
   2fc4c367e:	e9 fa 35 00 00       	jmp    2fc4c6c7d <DllRegisterServer+0x56dd>
   2fc4c3683:	8b 45 04             	mov    eax,DWORD PTR [rbp+0x4]
   2fc4c3686:	89 85 94 01 00 00    	mov    DWORD PTR [rbp+0x194],eax
   2fc4c368c:	c7 45 00 fa c9 72 17 	mov    DWORD PTR [rbp+0x0],0x1772c9fa
   2fc4c3693:	e9 e5 35 00 00       	jmp    2fc4c6c7d <DllRegisterServer+0x56dd>
   2fc4c3698:	8b 85 94 01 00 00    	mov    eax,DWORD PTR [rbp+0x194]
   2fc4c369e:	89 c0                	mov    eax,eax
   2fc4c36a0:	89 c1                	mov    ecx,eax
   2fc4c36a2:	48 89 8d 98 01 00 00 	mov    QWORD PTR [rbp+0x198],rcx
   2fc4c36a9:	c7 45 00 c6 8f 54 f4 	mov    DWORD PTR [rbp+0x0],0xf4548fc6
   2fc4c36b0:	e9 c8 35 00 00       	jmp    2fc4c6c7d <DllRegisterServer+0x56dd>
   2fc4c36b5:	48 8d 05 64 89 00 00 	lea    rax,[rip+0x8964]        # 2fc4cc020 <gBuf>
   2fc4c36bc:	48 05 14 27 00 00    	add    rax,0x2714
   2fc4c36c2:	48 8b 8d 98 01 00 00 	mov    rcx,QWORD PTR [rbp+0x198]
   2fc4c36c9:	48 01 c8             	add    rax,rcx
   2fc4c36cc:	48 8b 4d 20          	mov    rcx,QWORD PTR [rbp+0x20]
   2fc4c36d0:	48 89 01             	mov    QWORD PTR [rcx],rax
   2fc4c36d3:	c7 45 00 98 86 da 53 	mov    DWORD PTR [rbp+0x0],0x53da8698
   2fc4c36da:	e9 9e 35 00 00       	jmp    2fc4c6c7d <DllRegisterServer+0x56dd>
   2fc4c36df:	48 8b 45 28          	mov    rax,QWORD PTR [rbp+0x28]
   2fc4c36e3:	48 89 85 a0 01 00 00 	mov    QWORD PTR [rbp+0x1a0],rax
   2fc4c36ea:	c7 45 00 0b 19 86 b5 	mov    DWORD PTR [rbp+0x0],0xb586190b
   2fc4c36f1:	e9 87 35 00 00       	jmp    2fc4c6c7d <DllRegisterServer+0x56dd>
   2fc4c36f6:	48 8b 45 20          	mov    rax,QWORD PTR [rbp+0x20]
   2fc4c36fa:	48 8b 00             	mov    rax,QWORD PTR [rax]
   2fc4c36fd:	48 89 85 a8 01 00 00 	mov    QWORD PTR [rbp+0x1a8],rax
   2fc4c3704:	c7 45 00 52 7c 6d 08 	mov    DWORD PTR [rbp+0x0],0x86d7c52
   2fc4c370b:	e9 6d 35 00 00       	jmp    2fc4c6c7d <DllRegisterServer+0x56dd>
   2fc4c3710:	48 8b 8d a0 01 00 00 	mov    rcx,QWORD PTR [rbp+0x1a0]
   2fc4c3717:	48 8b 95 a8 01 00 00 	mov    rdx,QWORD PTR [rbp+0x1a8]
   2fc4c371e:	48 83 ec 20          	sub    rsp,0x20
   2fc4c3722:	41 b8 04 00 00 00    	mov    r8d,0x4
   2fc4c3728:	e8 63 35 00 00       	call   2fc4c6c90 <MemCpy>
   2fc4c372d:	48 83 c4 20          	add    rsp,0x20
   2fc4c3731:	c7 45 00 ee 8d 62 61 	mov    DWORD PTR [rbp+0x0],0x61628dee
   2fc4c3738:	e9 40 35 00 00       	jmp    2fc4c6c7d <DllRegisterServer+0x56dd>
   2fc4c373d:	48 8b 45 20          	mov    rax,QWORD PTR [rbp+0x20]
   2fc4c3741:	48 8b 00             	mov    rax,QWORD PTR [rax]
   2fc4c3744:	48 89 85 b0 01 00 00 	mov    QWORD PTR [rbp+0x1b0],rax
   2fc4c374b:	c7 45 00 45 5e ba 2c 	mov    DWORD PTR [rbp+0x0],0x2cba5e45
   2fc4c3752:	e9 26 35 00 00       	jmp    2fc4c6c7d <DllRegisterServer+0x56dd>
   2fc4c3757:	48 8b 85 b0 01 00 00 	mov    rax,QWORD PTR [rbp+0x1b0]
   2fc4c375e:	48 05 04 00 00 00    	add    rax,0x4
   2fc4c3764:	48 89 85 b8 01 00 00 	mov    QWORD PTR [rbp+0x1b8],rax
   2fc4c376b:	c7 45 00 b9 b9 3f a9 	mov    DWORD PTR [rbp+0x0],0xa93fb9b9
   2fc4c3772:	e9 06 35 00 00       	jmp    2fc4c6c7d <DllRegisterServer+0x56dd>
   2fc4c3777:	48 8b 45 20          	mov    rax,QWORD PTR [rbp+0x20]
   2fc4c377b:	48 8b 8d b8 01 00 00 	mov    rcx,QWORD PTR [rbp+0x1b8]
   2fc4c3782:	48 89 08             	mov    QWORD PTR [rax],rcx
   2fc4c3785:	c7 45 00 50 1d dc bc 	mov    DWORD PTR [rbp+0x0],0xbcdc1d50
   2fc4c378c:	e9 ec 34 00 00       	jmp    2fc4c6c7d <DllRegisterServer+0x56dd>
   2fc4c3791:	48 8b 45 30          	mov    rax,QWORD PTR [rbp+0x30]
   2fc4c3795:	c7 00 00 00 00 00    	mov    DWORD PTR [rax],0x0
   2fc4c379b:	c7 45 00 51 20 ea c9 	mov    DWORD PTR [rbp+0x0],0xc9ea2051
   2fc4c37a2:	e9 d6 34 00 00       	jmp    2fc4c6c7d <DllRegisterServer+0x56dd>
   2fc4c37a7:	c7 45 00 5d 3e 5c ba 	mov    DWORD PTR [rbp+0x0],0xba5c3e5d
   2fc4c37ae:	e9 ca 34 00 00       	jmp    2fc4c6c7d <DllRegisterServer+0x56dd>
   2fc4c37b3:	48 8b 45 30          	mov    rax,QWORD PTR [rbp+0x30]
   2fc4c37b7:	8b 08                	mov    ecx,DWORD PTR [rax]
   2fc4c37b9:	89 8d c4 01 00 00    	mov    DWORD PTR [rbp+0x1c4],ecx
   2fc4c37bf:	c7 45 00 0e ec c4 12 	mov    DWORD PTR [rbp+0x0],0x12c4ec0e
   2fc4c37c6:	e9 b2 34 00 00       	jmp    2fc4c6c7d <DllRegisterServer+0x56dd>
   2fc4c37cb:	48 8b 45 28          	mov    rax,QWORD PTR [rbp+0x28]
   2fc4c37cf:	8b 08                	mov    ecx,DWORD PTR [rax]
   2fc4c37d1:	89 8d c8 01 00 00    	mov    DWORD PTR [rbp+0x1c8],ecx
   2fc4c37d7:	c7 45 00 c5 12 d1 db 	mov    DWORD PTR [rbp+0x0],0xdbd112c5
   2fc4c37de:	e9 9a 34 00 00       	jmp    2fc4c6c7d <DllRegisterServer+0x56dd>
   2fc4c37e3:	8b 85 c4 01 00 00    	mov    eax,DWORD PTR [rbp+0x1c4]
   2fc4c37e9:	8b 8d c8 01 00 00    	mov    ecx,DWORD PTR [rbp+0x1c8]
   2fc4c37ef:	39 c8                	cmp    eax,ecx
   2fc4c37f1:	0f 92 c2             	setb   dl
   2fc4c37f4:	80 e2 01             	and    dl,0x1
   2fc4c37f7:	88 95 cf 01 00 00    	mov    BYTE PTR [rbp+0x1cf],dl
   2fc4c37fd:	c7 45 00 9b cf ce 20 	mov    DWORD PTR [rbp+0x0],0x20cecf9b
   2fc4c3804:	e9 74 34 00 00       	jmp    2fc4c6c7d <DllRegisterServer+0x56dd>
   2fc4c3809:	8a 85 cf 01 00 00    	mov    al,BYTE PTR [rbp+0x1cf]
   2fc4c380f:	a8 01                	test   al,0x1
   2fc4c3811:	b9 06 7e ab f3       	mov    ecx,0xf3ab7e06
   2fc4c3816:	ba 9a 47 51 29       	mov    edx,0x2951479a
   2fc4c381b:	0f 45 d1             	cmovne edx,ecx
   2fc4c381e:	89 55 00             	mov    DWORD PTR [rbp+0x0],edx
   2fc4c3821:	e9 57 34 00 00       	jmp    2fc4c6c7d <DllRegisterServer+0x56dd>
   2fc4c3826:	48 8b 45 08          	mov    rax,QWORD PTR [rbp+0x8]
   2fc4c382a:	48 8b 00             	mov    rax,QWORD PTR [rax]
   2fc4c382d:	48 89 85 d0 01 00 00 	mov    QWORD PTR [rbp+0x1d0],rax
   2fc4c3834:	c7 45 00 3a 06 21 bb 	mov    DWORD PTR [rbp+0x0],0xbb21063a
   2fc4c383b:	e9 3d 34 00 00       	jmp    2fc4c6c7d <DllRegisterServer+0x56dd>
   2fc4c3840:	48 8b 45 30          	mov    rax,QWORD PTR [rbp+0x30]
   2fc4c3844:	8b 00                	mov    eax,DWORD PTR [rax]
   2fc4c3846:	31 d2                	xor    edx,edx
   2fc4c3848:	b9 10 27 00 00       	mov    ecx,0x2710
   2fc4c384d:	f7 f1                	div    ecx
   2fc4c384f:	89 95 dc 01 00 00    	mov    DWORD PTR [rbp+0x1dc],edx
   2fc4c3855:	c7 45 00 7f e5 cf 9b 	mov    DWORD PTR [rbp+0x0],0x9bcfe57f
   2fc4c385c:	e9 1c 34 00 00       	jmp    2fc4c6c7d <DllRegisterServer+0x56dd>
   2fc4c3861:	8b 85 dc 01 00 00    	mov    eax,DWORD PTR [rbp+0x1dc]
   2fc4c3867:	89 c0                	mov    eax,eax
   2fc4c3869:	89 c1                	mov    ecx,eax
   2fc4c386b:	48 8b 95 d0 01 00 00 	mov    rdx,QWORD PTR [rbp+0x1d0]
   2fc4c3872:	48 01 ca             	add    rdx,rcx
   2fc4c3875:	48 89 95 e0 01 00 00 	mov    QWORD PTR [rbp+0x1e0],rdx
   2fc4c387c:	c7 45 00 11 b6 bf 05 	mov    DWORD PTR [rbp+0x0],0x5bfb611
   2fc4c3883:	e9 f5 33 00 00       	jmp    2fc4c6c7d <DllRegisterServer+0x56dd>
   2fc4c3888:	48 8b 85 e0 01 00 00 	mov    rax,QWORD PTR [rbp+0x1e0]
   2fc4c388f:	8a 08                	mov    cl,BYTE PTR [rax]
   2fc4c3891:	88 8d eb 01 00 00    	mov    BYTE PTR [rbp+0x1eb],cl
   2fc4c3897:	c7 45 00 59 83 2f b7 	mov    DWORD PTR [rbp+0x0],0xb72f8359
   2fc4c389e:	e9 da 33 00 00       	jmp    2fc4c6c7d <DllRegisterServer+0x56dd>
   2fc4c38a3:	8a 85 eb 01 00 00    	mov    al,BYTE PTR [rbp+0x1eb]
   2fc4c38a9:	0f b6 c8             	movzx  ecx,al
   2fc4c38ac:	89 8d ec 01 00 00    	mov    DWORD PTR [rbp+0x1ec],ecx
   2fc4c38b2:	c7 45 00 42 0b 3d de 	mov    DWORD PTR [rbp+0x0],0xde3d0b42
   2fc4c38b9:	e9 bf 33 00 00       	jmp    2fc4c6c7d <DllRegisterServer+0x56dd>
   2fc4c38be:	48 8b 45 20          	mov    rax,QWORD PTR [rbp+0x20]
   2fc4c38c2:	48 8b 00             	mov    rax,QWORD PTR [rax]
   2fc4c38c5:	48 89 85 f0 01 00 00 	mov    QWORD PTR [rbp+0x1f0],rax
   2fc4c38cc:	c7 45 00 c4 d6 3c f6 	mov    DWORD PTR [rbp+0x0],0xf63cd6c4
   2fc4c38d3:	e9 a5 33 00 00       	jmp    2fc4c6c7d <DllRegisterServer+0x56dd>
   2fc4c38d8:	48 8b 45 30          	mov    rax,QWORD PTR [rbp+0x30]
   2fc4c38dc:	8b 08                	mov    ecx,DWORD PTR [rax]
   2fc4c38de:	89 c8                	mov    eax,ecx
   2fc4c38e0:	48 89 85 f8 01 00 00 	mov    QWORD PTR [rbp+0x1f8],rax
   2fc4c38e7:	c7 45 00 4f 28 4a 4a 	mov    DWORD PTR [rbp+0x0],0x4a4a284f
   2fc4c38ee:	e9 8a 33 00 00       	jmp    2fc4c6c7d <DllRegisterServer+0x56dd>
   2fc4c38f3:	48 8b 85 f0 01 00 00 	mov    rax,QWORD PTR [rbp+0x1f0]
   2fc4c38fa:	48 8b 8d f8 01 00 00 	mov    rcx,QWORD PTR [rbp+0x1f8]
   2fc4c3901:	48 01 c8             	add    rax,rcx
   2fc4c3904:	48 89 85 00 02 00 00 	mov    QWORD PTR [rbp+0x200],rax
   2fc4c390b:	c7 45 00 80 20 55 cb 	mov    DWORD PTR [rbp+0x0],0xcb552080
   2fc4c3912:	e9 66 33 00 00       	jmp    2fc4c6c7d <DllRegisterServer+0x56dd>
   2fc4c3917:	48 8b 85 00 02 00 00 	mov    rax,QWORD PTR [rbp+0x200]
   2fc4c391e:	0f b6 08             	movzx  ecx,BYTE PTR [rax]
   2fc4c3921:	89 8d 08 02 00 00    	mov    DWORD PTR [rbp+0x208],ecx
   2fc4c3927:	c7 45 00 63 3b 3a 4d 	mov    DWORD PTR [rbp+0x0],0x4d3a3b63
   2fc4c392e:	e9 4a 33 00 00       	jmp    2fc4c6c7d <DllRegisterServer+0x56dd>
   2fc4c3933:	8b 85 ec 01 00 00    	mov    eax,DWORD PTR [rbp+0x1ec]
   2fc4c3939:	8b 8d 08 02 00 00    	mov    ecx,DWORD PTR [rbp+0x208]
   2fc4c393f:	89 ca                	mov    edx,ecx
   2fc4c3941:	83 f2 ff             	xor    edx,0xffffffff
   2fc4c3944:	81 e2 ff ff ff ff    	and    edx,0xffffffff
   2fc4c394a:	41 b8 ff ff ff ff    	mov    r8d,0xffffffff
   2fc4c3950:	45 89 c1             	mov    r9d,r8d
   2fc4c3953:	41 81 f1 ff ff ff ff 	xor    r9d,0xffffffff
   2fc4c395a:	41 89 ca             	mov    r10d,ecx
   2fc4c395d:	45 21 ca             	and    r10d,r9d
   2fc4c3960:	44 09 d2             	or     edx,r10d
   2fc4c3963:	83 f2 ff             	xor    edx,0xffffffff
   2fc4c3966:	81 f2 da 1d ed 40    	xor    edx,0x40ed1dda
   2fc4c396c:	81 e2 da 1d ed 40    	and    edx,0x40ed1dda
   2fc4c3972:	45 89 c1             	mov    r9d,r8d
   2fc4c3975:	41 81 f1 da 1d ed 40 	xor    r9d,0x40ed1dda
   2fc4c397c:	41 81 e1 60 14 5e 8a 	and    r9d,0x8a5e1460
   2fc4c3983:	45 89 c2             	mov    r10d,r8d
   2fc4c3986:	41 81 f2 60 14 5e 8a 	xor    r10d,0x8a5e1460
   2fc4c398d:	45 89 d3             	mov    r11d,r10d
   2fc4c3990:	41 81 e3 da 1d ed 40 	and    r11d,0x40ed1dda
   2fc4c3997:	44 89 c6             	mov    esi,r8d
   2fc4c399a:	81 f6 ff ff ff ff    	xor    esi,0xffffffff
   2fc4c39a0:	81 e6 60 14 5e 8a    	and    esi,0x8a5e1460
   2fc4c39a6:	41 81 e2 ff ff ff ff 	and    r10d,0xffffffff
   2fc4c39ad:	45 09 d9             	or     r9d,r11d
   2fc4c39b0:	44 09 d6             	or     esi,r10d
   2fc4c39b3:	41 31 f1             	xor    r9d,esi
   2fc4c39b6:	41 89 ca             	mov    r10d,ecx
   2fc4c39b9:	41 83 f2 ff          	xor    r10d,0xffffffff
   2fc4c39bd:	45 89 cb             	mov    r11d,r9d
   2fc4c39c0:	41 83 f3 ff          	xor    r11d,0xffffffff
   2fc4c39c4:	44 89 c6             	mov    esi,r8d
   2fc4c39c7:	81 f6 41 19 f0 71    	xor    esi,0x71f01941
   2fc4c39cd:	45 09 da             	or     r10d,r11d
   2fc4c39d0:	81 ce 41 19 f0 71    	or     esi,0x71f01941
   2fc4c39d6:	41 83 f2 ff          	xor    r10d,0xffffffff
   2fc4c39da:	41 21 f2             	and    r10d,esi
   2fc4c39dd:	45 89 c3             	mov    r11d,r8d
   2fc4c39e0:	41 81 f3 ff ff ff ff 	xor    r11d,0xffffffff
   2fc4c39e7:	41 81 e3 7b 8d 03 b7 	and    r11d,0xb7038d7b
   2fc4c39ee:	44 89 c6             	mov    esi,r8d
   2fc4c39f1:	81 f6 7b 8d 03 b7    	xor    esi,0xb7038d7b
   2fc4c39f7:	89 f7                	mov    edi,esi
   2fc4c39f9:	81 e7 ff ff ff ff    	and    edi,0xffffffff
   2fc4c39ff:	44 89 c3             	mov    ebx,r8d
   2fc4c3a02:	81 f3 ff ff ff ff    	xor    ebx,0xffffffff
   2fc4c3a08:	81 e3 7b 8d 03 b7    	and    ebx,0xb7038d7b
   2fc4c3a0e:	81 e6 ff ff ff ff    	and    esi,0xffffffff
   2fc4c3a14:	41 09 fb             	or     r11d,edi
   2fc4c3a17:	09 f3                	or     ebx,esi
   2fc4c3a19:	41 31 db             	xor    r11d,ebx
   2fc4c3a1c:	44 89 c6             	mov    esi,r8d
   2fc4c3a1f:	81 f6 da 1d ed 40    	xor    esi,0x40ed1dda
   2fc4c3a25:	44 89 df             	mov    edi,r11d
   2fc4c3a28:	31 f7                	xor    edi,esi
   2fc4c3a2a:	44 21 df             	and    edi,r11d
   2fc4c3a2d:	45 89 c3             	mov    r11d,r8d
   2fc4c3a30:	41 81 f3 ff ff ff ff 	xor    r11d,0xffffffff
   2fc4c3a37:	41 83 f1 ff          	xor    r9d,0xffffffff
   2fc4c3a3b:	44 89 c6             	mov    esi,r8d
   2fc4c3a3e:	81 f6 b3 02 60 38    	xor    esi,0x386002b3
   2fc4c3a44:	45 09 cb             	or     r11d,r9d
   2fc4c3a47:	81 ce b3 02 60 38    	or     esi,0x386002b3
   2fc4c3a4d:	41 83 f3 ff          	xor    r11d,0xffffffff
   2fc4c3a51:	41 21 f3             	and    r11d,esi
   2fc4c3a54:	41 89 d1             	mov    r9d,edx
   2fc4c3a57:	41 83 f1 ff          	xor    r9d,0xffffffff
   2fc4c3a5b:	44 89 d6             	mov    esi,r10d
   2fc4c3a5e:	83 f6 ff             	xor    esi,0xffffffff
   2fc4c3a61:	44 89 c3             	mov    ebx,r8d
   2fc4c3a64:	81 f3 4f b8 e4 a5    	xor    ebx,0xa5e4b84f
   2fc4c3a6a:	45 89 ce             	mov    r14d,r9d
   2fc4c3a6d:	41 81 e6 4f b8 e4 a5 	and    r14d,0xa5e4b84f
   2fc4c3a74:	21 da                	and    edx,ebx
   2fc4c3a76:	41 89 f7             	mov    r15d,esi
   2fc4c3a79:	41 81 e7 4f b8 e4 a5 	and    r15d,0xa5e4b84f
   2fc4c3a80:	41 21 da             	and    r10d,ebx
   2fc4c3a83:	41 09 d6             	or     r14d,edx
   2fc4c3a86:	45 09 d7             	or     r15d,r10d
   2fc4c3a89:	45 31 fe             	xor    r14d,r15d
   2fc4c3a8c:	41 09 f1             	or     r9d,esi
   2fc4c3a8f:	41 83 f1 ff          	xor    r9d,0xffffffff
   2fc4c3a93:	81 cb 4f b8 e4 a5    	or     ebx,0xa5e4b84f
   2fc4c3a99:	41 21 d9             	and    r9d,ebx
   2fc4c3a9c:	45 09 ce             	or     r14d,r9d
   2fc4c3a9f:	89 fa                	mov    edx,edi
   2fc4c3aa1:	44 21 da             	and    edx,r11d
   2fc4c3aa4:	44 31 df             	xor    edi,r11d
   2fc4c3aa7:	09 fa                	or     edx,edi
   2fc4c3aa9:	45 89 f1             	mov    r9d,r14d
   2fc4c3aac:	41 83 f1 ff          	xor    r9d,0xffffffff
   2fc4c3ab0:	41 81 e1 94 c3 8d 93 	and    r9d,0x938dc394
   2fc4c3ab7:	45 89 c2             	mov    r10d,r8d
   2fc4c3aba:	41 81 f2 94 c3 8d 93 	xor    r10d,0x938dc394
   2fc4c3ac1:	45 21 d6             	and    r14d,r10d
   2fc4c3ac4:	41 89 d3             	mov    r11d,edx
   2fc4c3ac7:	41 83 f3 ff          	xor    r11d,0xffffffff
   2fc4c3acb:	41 81 e3 94 c3 8d 93 	and    r11d,0x938dc394
   2fc4c3ad2:	44 21 d2             	and    edx,r10d
   2fc4c3ad5:	45 09 f1             	or     r9d,r14d
   2fc4c3ad8:	41 09 d3             	or     r11d,edx
   2fc4c3adb:	45 31 d9             	xor    r9d,r11d
   2fc4c3ade:	44 89 ca             	mov    edx,r9d
   2fc4c3ae1:	83 f2 ff             	xor    edx,0xffffffff
   2fc4c3ae4:	81 e2 84 d6 5e 11    	and    edx,0x115ed684
   2fc4c3aea:	45 89 c2             	mov    r10d,r8d
   2fc4c3aed:	41 81 f2 84 d6 5e 11 	xor    r10d,0x115ed684
   2fc4c3af4:	45 21 d1             	and    r9d,r10d
   2fc4c3af7:	45 89 c3             	mov    r11d,r8d
   2fc4c3afa:	41 81 f3 ff ff ff ff 	xor    r11d,0xffffffff
   2fc4c3b01:	41 81 e3 84 d6 5e 11 	and    r11d,0x115ed684
   2fc4c3b08:	41 81 e2 ff ff ff ff 	and    r10d,0xffffffff
   2fc4c3b0f:	44 09 ca             	or     edx,r9d
   2fc4c3b12:	45 09 d3             	or     r11d,r10d
   2fc4c3b15:	44 31 da             	xor    edx,r11d
   2fc4c3b18:	41 89 c1             	mov    r9d,eax
   2fc4c3b1b:	41 83 f1 ff          	xor    r9d,0xffffffff
   2fc4c3b1f:	41 89 d2             	mov    r10d,edx
   2fc4c3b22:	45 21 ca             	and    r10d,r9d
   2fc4c3b25:	83 f2 ff             	xor    edx,0xffffffff
   2fc4c3b28:	41 89 c1             	mov    r9d,eax
   2fc4c3b2b:	41 21 d1             	and    r9d,edx
   2fc4c3b2e:	45 09 ca             	or     r10d,r9d
   2fc4c3b31:	89 c2                	mov    edx,eax
   2fc4c3b33:	83 f2 ff             	xor    edx,0xffffffff
   2fc4c3b36:	45 89 d1             	mov    r9d,r10d
   2fc4c3b39:	41 31 d1             	xor    r9d,edx
   2fc4c3b3c:	45 21 d1             	and    r9d,r10d
   2fc4c3b3f:	89 c2                	mov    edx,eax
   2fc4c3b41:	83 f2 ff             	xor    edx,0xffffffff
   2fc4c3b44:	81 e2 ff ff ff ff    	and    edx,0xffffffff
   2fc4c3b4a:	45 89 c2             	mov    r10d,r8d
   2fc4c3b4d:	41 81 f2 ff ff ff ff 	xor    r10d,0xffffffff
   2fc4c3b54:	41 89 c3             	mov    r11d,eax
   2fc4c3b57:	45 21 d3             	and    r11d,r10d
   2fc4c3b5a:	44 09 da             	or     edx,r11d
   2fc4c3b5d:	45 89 c2             	mov    r10d,r8d
   2fc4c3b60:	41 81 f2 ff ff ff ff 	xor    r10d,0xffffffff
   2fc4c3b67:	83 f2 ff             	xor    edx,0xffffffff
   2fc4c3b6a:	45 89 c3             	mov    r11d,r8d
   2fc4c3b6d:	41 81 f3 39 5e 4b ff 	xor    r11d,0xff4b5e39
   2fc4c3b74:	41 09 d2             	or     r10d,edx
   2fc4c3b77:	41 81 cb 39 5e 4b ff 	or     r11d,0xff4b5e39
   2fc4c3b7e:	41 83 f2 ff          	xor    r10d,0xffffffff
   2fc4c3b82:	45 21 da             	and    r10d,r11d
   2fc4c3b85:	44 89 c2             	mov    edx,r8d
   2fc4c3b88:	81 f2 ff ff ff ff    	xor    edx,0xffffffff
   2fc4c3b8e:	81 e2 e8 ca 50 28    	and    edx,0x2850cae8
   2fc4c3b94:	45 89 c3             	mov    r11d,r8d
   2fc4c3b97:	41 81 f3 e8 ca 50 28 	xor    r11d,0x2850cae8
   2fc4c3b9e:	44 89 de             	mov    esi,r11d
   2fc4c3ba1:	81 e6 ff ff ff ff    	and    esi,0xffffffff
   2fc4c3ba7:	44 89 c7             	mov    edi,r8d
   2fc4c3baa:	81 f7 ff ff ff ff    	xor    edi,0xffffffff
   2fc4c3bb0:	81 e7 e8 ca 50 28    	and    edi,0x2850cae8
   2fc4c3bb6:	41 81 e3 ff ff ff ff 	and    r11d,0xffffffff
   2fc4c3bbd:	09 f2                	or     edx,esi
   2fc4c3bbf:	44 09 df             	or     edi,r11d
   2fc4c3bc2:	31 fa                	xor    edx,edi
   2fc4c3bc4:	83 f0 ff             	xor    eax,0xffffffff
   2fc4c3bc7:	83 f2 ff             	xor    edx,0xffffffff
   2fc4c3bca:	45 89 c3             	mov    r11d,r8d
   2fc4c3bcd:	41 81 f3 b4 86 96 77 	xor    r11d,0x779686b4
   2fc4c3bd4:	09 d0                	or     eax,edx
   2fc4c3bd6:	41 81 cb b4 86 96 77 	or     r11d,0x779686b4
   2fc4c3bdd:	83 f0 ff             	xor    eax,0xffffffff
   2fc4c3be0:	44 21 d8             	and    eax,r11d
   2fc4c3be3:	44 89 d2             	mov    edx,r10d
   2fc4c3be6:	21 c2                	and    edx,eax
   2fc4c3be8:	41 31 c2             	xor    r10d,eax
   2fc4c3beb:	44 09 d2             	or     edx,r10d
   2fc4c3bee:	89 c8                	mov    eax,ecx
   2fc4c3bf0:	83 f0 ff             	xor    eax,0xffffffff
   2fc4c3bf3:	25 ff ff ff ff       	and    eax,0xffffffff
   2fc4c3bf8:	45 89 c2             	mov    r10d,r8d
   2fc4c3bfb:	41 81 f2 ff ff ff ff 	xor    r10d,0xffffffff
   2fc4c3c02:	44 21 d1             	and    ecx,r10d
   2fc4c3c05:	09 c8                	or     eax,ecx
   2fc4c3c07:	89 d1                	mov    ecx,edx
   2fc4c3c09:	83 f1 ff             	xor    ecx,0xffffffff
   2fc4c3c0c:	81 e1 ff ff ff ff    	and    ecx,0xffffffff
   2fc4c3c12:	45 89 c2             	mov    r10d,r8d
   2fc4c3c15:	41 81 f2 ff ff ff ff 	xor    r10d,0xffffffff
   2fc4c3c1c:	44 21 d2             	and    edx,r10d
   2fc4c3c1f:	09 d1                	or     ecx,edx
   2fc4c3c21:	44 89 c2             	mov    edx,r8d
   2fc4c3c24:	81 f2 7d f1 18 d7    	xor    edx,0xd718f17d
   2fc4c3c2a:	81 e2 79 be d8 b9    	and    edx,0xb9d8be79
   2fc4c3c30:	45 89 c2             	mov    r10d,r8d
   2fc4c3c33:	41 81 f2 79 be d8 b9 	xor    r10d,0xb9d8be79
   2fc4c3c3a:	45 89 d3             	mov    r11d,r10d
   2fc4c3c3d:	41 81 e3 7d f1 18 d7 	and    r11d,0xd718f17d
   2fc4c3c44:	44 89 c6             	mov    esi,r8d
   2fc4c3c47:	81 f6 ff ff ff ff    	xor    esi,0xffffffff
   2fc4c3c4d:	81 e6 79 be d8 b9    	and    esi,0xb9d8be79
   2fc4c3c53:	41 81 e2 ff ff ff ff 	and    r10d,0xffffffff
   2fc4c3c5a:	44 09 da             	or     edx,r11d
   2fc4c3c5d:	44 09 d6             	or     esi,r10d
   2fc4c3c60:	31 f2                	xor    edx,esi
   2fc4c3c62:	41 89 c2             	mov    r10d,eax
   2fc4c3c65:	41 83 f2 ff          	xor    r10d,0xffffffff
   2fc4c3c69:	41 89 cb             	mov    r11d,ecx
   2fc4c3c6c:	41 83 f3 ff          	xor    r11d,0xffffffff
   2fc4c3c70:	44 89 c6             	mov    esi,r8d
   2fc4c3c73:	81 f6 5a 8c 11 55    	xor    esi,0x55118c5a
   2fc4c3c79:	44 89 d7             	mov    edi,r10d
   2fc4c3c7c:	81 e7 5a 8c 11 55    	and    edi,0x55118c5a
   2fc4c3c82:	21 f0                	and    eax,esi
   2fc4c3c84:	44 89 db             	mov    ebx,r11d
   2fc4c3c87:	81 e3 5a 8c 11 55    	and    ebx,0x55118c5a
   2fc4c3c8d:	21 f1                	and    ecx,esi
   2fc4c3c8f:	09 c7                	or     edi,eax
   2fc4c3c91:	09 cb                	or     ebx,ecx
   2fc4c3c93:	31 df                	xor    edi,ebx
   2fc4c3c95:	45 09 da             	or     r10d,r11d
   2fc4c3c98:	41 83 f2 ff          	xor    r10d,0xffffffff
   2fc4c3c9c:	81 ce 5a 8c 11 55    	or     esi,0x55118c5a
   2fc4c3ca2:	41 21 f2             	and    r10d,esi
   2fc4c3ca5:	44 09 d7             	or     edi,r10d
   2fc4c3ca8:	44 89 c0             	mov    eax,r8d
   2fc4c3cab:	35 7d f1 18 d7       	xor    eax,0xd718f17d
   2fc4c3cb0:	89 d1                	mov    ecx,edx
   2fc4c3cb2:	83 f1 ff             	xor    ecx,0xffffffff
   2fc4c3cb5:	45 89 c2             	mov    r10d,r8d
   2fc4c3cb8:	41 81 f2 a7 0c ec c7 	xor    r10d,0xc7ec0ca7
   2fc4c3cbf:	41 89 c3             	mov    r11d,eax
   2fc4c3cc2:	41 81 e3 a7 0c ec c7 	and    r11d,0xc7ec0ca7
   2fc4c3cc9:	44 89 d6             	mov    esi,r10d
   2fc4c3ccc:	81 e6 7d f1 18 d7    	and    esi,0xd718f17d
   2fc4c3cd2:	89 cb                	mov    ebx,ecx
   2fc4c3cd4:	81 e3 a7 0c ec c7    	and    ebx,0xc7ec0ca7
   2fc4c3cda:	44 21 d2             	and    edx,r10d
   2fc4c3cdd:	41 09 f3             	or     r11d,esi
   2fc4c3ce0:	09 d3                	or     ebx,edx
   2fc4c3ce2:	41 31 db             	xor    r11d,ebx
   2fc4c3ce5:	09 c8                	or     eax,ecx
   2fc4c3ce7:	83 f0 ff             	xor    eax,0xffffffff
   2fc4c3cea:	41 81 ca a7 0c ec c7 	or     r10d,0xc7ec0ca7
   2fc4c3cf1:	44 21 d0             	and    eax,r10d
   2fc4c3cf4:	41 09 c3             	or     r11d,eax
   2fc4c3cf7:	89 f8                	mov    eax,edi
   2fc4c3cf9:	83 f0 ff             	xor    eax,0xffffffff
   2fc4c3cfc:	25 ff ff ff ff       	and    eax,0xffffffff
   2fc4c3d01:	44 89 c1             	mov    ecx,r8d
   2fc4c3d04:	81 f1 ff ff ff ff    	xor    ecx,0xffffffff
   2fc4c3d0a:	21 cf                	and    edi,ecx
   2fc4c3d0c:	09 f8                	or     eax,edi
   2fc4c3d0e:	41 83 f3 ff          	xor    r11d,0xffffffff
   2fc4c3d12:	89 c1                	mov    ecx,eax
   2fc4c3d14:	44 31 d9             	xor    ecx,r11d
   2fc4c3d17:	21 c1                	and    ecx,eax
   2fc4c3d19:	44 89 c8             	mov    eax,r9d
   2fc4c3d1c:	83 f0 ff             	xor    eax,0xffffffff
   2fc4c3d1f:	25 ff ff ff ff       	and    eax,0xffffffff
   2fc4c3d24:	44 89 c2             	mov    edx,r8d
   2fc4c3d27:	81 f2 ff ff ff ff    	xor    edx,0xffffffff
   2fc4c3d2d:	45 89 ca             	mov    r10d,r9d
   2fc4c3d30:	41 21 d2             	and    r10d,edx
   2fc4c3d33:	44 09 d0             	or     eax,r10d
   2fc4c3d36:	89 ca                	mov    edx,ecx
   2fc4c3d38:	83 f2 ff             	xor    edx,0xffffffff
   2fc4c3d3b:	81 e2 10 eb 14 81    	and    edx,0x8114eb10
   2fc4c3d41:	45 89 c2             	mov    r10d,r8d
   2fc4c3d44:	41 81 f2 10 eb 14 81 	xor    r10d,0x8114eb10
   2fc4c3d4b:	41 89 cb             	mov    r11d,ecx
   2fc4c3d4e:	45 21 d3             	and    r11d,r10d
   2fc4c3d51:	44 89 c6             	mov    esi,r8d
   2fc4c3d54:	81 f6 ff ff ff ff    	xor    esi,0xffffffff
   2fc4c3d5a:	81 e6 10 eb 14 81    	and    esi,0x8114eb10
   2fc4c3d60:	41 81 e2 ff ff ff ff 	and    r10d,0xffffffff
   2fc4c3d67:	44 09 da             	or     edx,r11d
   2fc4c3d6a:	44 09 d6             	or     esi,r10d
   2fc4c3d6d:	31 f2                	xor    edx,esi
   2fc4c3d6f:	45 89 c2             	mov    r10d,r8d
   2fc4c3d72:	41 81 f2 45 42 86 9d 	xor    r10d,0x9d864245
   2fc4c3d79:	41 81 e2 1d 2d 18 7b 	and    r10d,0x7b182d1d
   2fc4c3d80:	45 89 c3             	mov    r11d,r8d
   2fc4c3d83:	41 81 f3 1d 2d 18 7b 	xor    r11d,0x7b182d1d
   2fc4c3d8a:	44 89 de             	mov    esi,r11d
   2fc4c3d8d:	81 e6 45 42 86 9d    	and    esi,0x9d864245
   2fc4c3d93:	44 89 c7             	mov    edi,r8d
   2fc4c3d96:	81 f7 ff ff ff ff    	xor    edi,0xffffffff
   2fc4c3d9c:	81 e7 1d 2d 18 7b    	and    edi,0x7b182d1d
   2fc4c3da2:	41 81 e3 ff ff ff ff 	and    r11d,0xffffffff
   2fc4c3da9:	41 09 f2             	or     r10d,esi
   2fc4c3dac:	44 09 df             	or     edi,r11d
   2fc4c3daf:	41 31 fa             	xor    r10d,edi
   2fc4c3db2:	41 89 c3             	mov    r11d,eax
   2fc4c3db5:	41 83 f3 ff          	xor    r11d,0xffffffff
   2fc4c3db9:	44 89 c6             	mov    esi,r8d
   2fc4c3dbc:	81 f6 45 42 86 9d    	xor    esi,0x9d864245
   2fc4c3dc2:	44 89 c7             	mov    edi,r8d
   2fc4c3dc5:	81 f7 4a f8 b7 f7    	xor    edi,0xf7b7f84a
   2fc4c3dcb:	41 09 f3             	or     r11d,esi
   2fc4c3dce:	81 cf 4a f8 b7 f7    	or     edi,0xf7b7f84a
   2fc4c3dd4:	41 83 f3 ff          	xor    r11d,0xffffffff
   2fc4c3dd8:	41 21 fb             	and    r11d,edi
   2fc4c3ddb:	44 89 d6             	mov    esi,r10d
   2fc4c3dde:	83 f6 ff             	xor    esi,0xffffffff
   2fc4c3de1:	44 89 cf             	mov    edi,r9d
   2fc4c3de4:	31 f7                	xor    edi,esi
   2fc4c3de6:	44 21 cf             	and    edi,r9d
   2fc4c3de9:	41 89 d1             	mov    r9d,edx
   2fc4c3dec:	41 83 f1 ff          	xor    r9d,0xffffffff
   2fc4c3df0:	44 89 c6             	mov    esi,r8d
   2fc4c3df3:	81 f6 45 42 86 9d    	xor    esi,0x9d864245
   2fc4c3df9:	44 89 c3             	mov    ebx,r8d
   2fc4c3dfc:	81 f3 81 45 3b a7    	xor    ebx,0xa73b4581
   2fc4c3e02:	41 09 f1             	or     r9d,esi
   2fc4c3e05:	81 cb 81 45 3b a7    	or     ebx,0xa73b4581
   2fc4c3e0b:	41 83 f1 ff          	xor    r9d,0xffffffff
   2fc4c3e0f:	41 21 d9             	and    r9d,ebx
   2fc4c3e12:	44 89 d6             	mov    esi,r10d
   2fc4c3e15:	83 f6 ff             	xor    esi,0xffffffff
   2fc4c3e18:	89 cb                	mov    ebx,ecx
   2fc4c3e1a:	31 f3                	xor    ebx,esi
   2fc4c3e1c:	21 cb                	and    ebx,ecx
   2fc4c3e1e:	44 89 d9             	mov    ecx,r11d
   2fc4c3e21:	83 f1 ff             	xor    ecx,0xffffffff
   2fc4c3e24:	89 fe                	mov    esi,edi
   2fc4c3e26:	83 f6 ff             	xor    esi,0xffffffff
   2fc4c3e29:	45 89 c6             	mov    r14d,r8d
   2fc4c3e2c:	41 81 f6 26 d1 94 32 	xor    r14d,0x3294d126
   2fc4c3e33:	41 89 cf             	mov    r15d,ecx
   2fc4c3e36:	41 81 e7 26 d1 94 32 	and    r15d,0x3294d126
   2fc4c3e3d:	45 21 f3             	and    r11d,r14d
   2fc4c3e40:	41 89 f4             	mov    r12d,esi
   2fc4c3e43:	41 81 e4 26 d1 94 32 	and    r12d,0x3294d126
   2fc4c3e4a:	44 21 f7             	and    edi,r14d
   2fc4c3e4d:	45 09 df             	or     r15d,r11d
   2fc4c3e50:	41 09 fc             	or     r12d,edi
   2fc4c3e53:	45 31 e7             	xor    r15d,r12d
   2fc4c3e56:	09 f1                	or     ecx,esi
   2fc4c3e58:	83 f1 ff             	xor    ecx,0xffffffff
   2fc4c3e5b:	41 81 ce 26 d1 94 32 	or     r14d,0x3294d126
   2fc4c3e62:	44 21 f1             	and    ecx,r14d
   2fc4c3e65:	41 09 cf             	or     r15d,ecx
   2fc4c3e68:	44 89 c9             	mov    ecx,r9d
   2fc4c3e6b:	21 d9                	and    ecx,ebx
   2fc4c3e6d:	41 31 d9             	xor    r9d,ebx
   2fc4c3e70:	44 09 c9             	or     ecx,r9d
   2fc4c3e73:	45 89 f9             	mov    r9d,r15d
   2fc4c3e76:	41 83 f1 ff          	xor    r9d,0xffffffff
   2fc4c3e7a:	41 89 cb             	mov    r11d,ecx
   2fc4c3e7d:	45 21 cb             	and    r11d,r9d
   2fc4c3e80:	83 f1 ff             	xor    ecx,0xffffffff
   2fc4c3e83:	41 21 cf             	and    r15d,ecx
   2fc4c3e86:	45 09 fb             	or     r11d,r15d
   2fc4c3e89:	89 c1                	mov    ecx,eax
   2fc4c3e8b:	21 d1                	and    ecx,edx
   2fc4c3e8d:	31 d0                	xor    eax,edx
   2fc4c3e8f:	09 c1                	or     ecx,eax
   2fc4c3e91:	89 c8                	mov    eax,ecx
   2fc4c3e93:	83 f0 ff             	xor    eax,0xffffffff
   2fc4c3e96:	25 ff ff ff ff       	and    eax,0xffffffff
   2fc4c3e9b:	44 89 c2             	mov    edx,r8d
   2fc4c3e9e:	81 f2 ff ff ff ff    	xor    edx,0xffffffff
   2fc4c3ea4:	21 d1                	and    ecx,edx
   2fc4c3ea6:	09 c8                	or     eax,ecx
   2fc4c3ea8:	44 89 c1             	mov    ecx,r8d
   2fc4c3eab:	81 f1 45 42 86 9d    	xor    ecx,0x9d864245
   2fc4c3eb1:	44 89 d2             	mov    edx,r10d
   2fc4c3eb4:	83 f2 ff             	xor    edx,0xffffffff
   2fc4c3eb7:	45 89 c1             	mov    r9d,r8d
   2fc4c3eba:	41 81 f1 e4 1d 02 07 	xor    r9d,0x7021de4
   2fc4c3ec1:	89 ce                	mov    esi,ecx
   2fc4c3ec3:	81 e6 e4 1d 02 07    	and    esi,0x7021de4
   2fc4c3ec9:	44 89 cf             	mov    edi,r9d
   2fc4c3ecc:	81 e7 45 42 86 9d    	and    edi,0x9d864245
   2fc4c3ed2:	89 d3                	mov    ebx,edx
   2fc4c3ed4:	81 e3 e4 1d 02 07    	and    ebx,0x7021de4
   2fc4c3eda:	45 21 ca             	and    r10d,r9d
   2fc4c3edd:	09 fe                	or     esi,edi
   2fc4c3edf:	44 09 d3             	or     ebx,r10d
   2fc4c3ee2:	31 de                	xor    esi,ebx
   2fc4c3ee4:	09 d1                	or     ecx,edx
   2fc4c3ee6:	83 f1 ff             	xor    ecx,0xffffffff
   2fc4c3ee9:	41 81 c9 e4 1d 02 07 	or     r9d,0x7021de4
   2fc4c3ef0:	44 21 c9             	and    ecx,r9d
   2fc4c3ef3:	09 ce                	or     esi,ecx
   2fc4c3ef5:	83 f0 ff             	xor    eax,0xffffffff
   2fc4c3ef8:	83 f6 ff             	xor    esi,0xffffffff
   2fc4c3efb:	41 81 f0 75 08 a5 21 	xor    r8d,0x21a50875
   2fc4c3f02:	09 f0                	or     eax,esi
   2fc4c3f04:	41 81 c8 75 08 a5 21 	or     r8d,0x21a50875
   2fc4c3f0b:	83 f0 ff             	xor    eax,0xffffffff
   2fc4c3f0e:	44 21 c0             	and    eax,r8d
   2fc4c3f11:	44 89 d9             	mov    ecx,r11d
   2fc4c3f14:	21 c1                	and    ecx,eax
   2fc4c3f16:	41 31 c3             	xor    r11d,eax
   2fc4c3f19:	44 09 d9             	or     ecx,r11d
   2fc4c3f1c:	88 8d 0f 02 00 00    	mov    BYTE PTR [rbp+0x20f],cl
   2fc4c3f22:	c7 45 00 2f cf c6 5d 	mov    DWORD PTR [rbp+0x0],0x5dc6cf2f
   2fc4c3f29:	e9 4f 2d 00 00       	jmp    2fc4c6c7d <DllRegisterServer+0x56dd>
   2fc4c3f2e:	48 8b 85 00 02 00 00 	mov    rax,QWORD PTR [rbp+0x200]
   2fc4c3f35:	8a 8d 0f 02 00 00    	mov    cl,BYTE PTR [rbp+0x20f]
   2fc4c3f3b:	88 08                	mov    BYTE PTR [rax],cl
   2fc4c3f3d:	c7 45 00 7f 66 2b af 	mov    DWORD PTR [rbp+0x0],0xaf2b667f
   2fc4c3f44:	e9 34 2d 00 00       	jmp    2fc4c6c7d <DllRegisterServer+0x56dd>
   2fc4c3f49:	48 8b 45 30          	mov    rax,QWORD PTR [rbp+0x30]
   2fc4c3f4d:	8b 08                	mov    ecx,DWORD PTR [rax]
   2fc4c3f4f:	89 8d 10 02 00 00    	mov    DWORD PTR [rbp+0x210],ecx
   2fc4c3f55:	c7 45 00 e9 73 e7 90 	mov    DWORD PTR [rbp+0x0],0x90e773e9
   2fc4c3f5c:	e9 1c 2d 00 00       	jmp    2fc4c6c7d <DllRegisterServer+0x56dd>
   2fc4c3f61:	31 c0                	xor    eax,eax
   2fc4c3f63:	8b 8d 10 02 00 00    	mov    ecx,DWORD PTR [rbp+0x210]
   2fc4c3f69:	89 c2                	mov    edx,eax
   2fc4c3f6b:	81 ea d8 64 e5 b3    	sub    edx,0xb3e564d8
   2fc4c3f71:	83 ea 01             	sub    edx,0x1
   2fc4c3f74:	81 c2 d8 64 e5 b3    	add    edx,0xb3e564d8
   2fc4c3f7a:	41 89 c0             	mov    r8d,eax
   2fc4c3f7d:	41 29 d0             	sub    r8d,edx
   2fc4c3f80:	89 c2                	mov    edx,eax
   2fc4c3f82:	44 29 c2             	sub    edx,r8d
   2fc4c3f85:	81 c1 a6 cc 27 b6    	add    ecx,0xb627cca6
   2fc4c3f8b:	81 c1 6c bf dc 15    	add    ecx,0x15dcbf6c
   2fc4c3f91:	81 e9 a6 cc 27 b6    	sub    ecx,0xb627cca6
   2fc4c3f97:	41 89 c0             	mov    r8d,eax
   2fc4c3f9a:	41 29 d0             	sub    r8d,edx
   2fc4c3f9d:	44 01 c1             	add    ecx,r8d
   2fc4c3fa0:	2d 6c bf dc 15       	sub    eax,0x15dcbf6c
   2fc4c3fa5:	01 c1                	add    ecx,eax
   2fc4c3fa7:	89 8d 14 02 00 00    	mov    DWORD PTR [rbp+0x214],ecx
   2fc4c3fad:	c7 45 00 ba 51 10 09 	mov    DWORD PTR [rbp+0x0],0x91051ba
   2fc4c3fb4:	e9 c4 2c 00 00       	jmp    2fc4c6c7d <DllRegisterServer+0x56dd>
   2fc4c3fb9:	48 8b 45 30          	mov    rax,QWORD PTR [rbp+0x30]
   2fc4c3fbd:	8b 8d 14 02 00 00    	mov    ecx,DWORD PTR [rbp+0x214]
   2fc4c3fc3:	89 08                	mov    DWORD PTR [rax],ecx
   2fc4c3fc5:	c7 45 00 d6 ff 44 2c 	mov    DWORD PTR [rbp+0x0],0x2c44ffd6
   2fc4c3fcc:	e9 ac 2c 00 00       	jmp    2fc4c6c7d <DllRegisterServer+0x56dd>
   2fc4c3fd1:	c7 45 00 5d 3e 5c ba 	mov    DWORD PTR [rbp+0x0],0xba5c3e5d
   2fc4c3fd8:	e9 a0 2c 00 00       	jmp    2fc4c6c7d <DllRegisterServer+0x56dd>
   2fc4c3fdd:	48 8b 45 10          	mov    rax,QWORD PTR [rbp+0x10]
   2fc4c3fe1:	48 8b 00             	mov    rax,QWORD PTR [rax]
   2fc4c3fe4:	48 8b 4d 38          	mov    rcx,QWORD PTR [rbp+0x38]
   2fc4c3fe8:	48 89 01             	mov    QWORD PTR [rcx],rax
   2fc4c3feb:	c7 45 00 8f 01 ec ad 	mov    DWORD PTR [rbp+0x0],0xadec018f
   2fc4c3ff2:	e9 86 2c 00 00       	jmp    2fc4c6c7d <DllRegisterServer+0x56dd>
   2fc4c3ff7:	48 8b 45 10          	mov    rax,QWORD PTR [rbp+0x10]
   2fc4c3ffb:	48 8b 00             	mov    rax,QWORD PTR [rax]
   2fc4c3ffe:	48 8b 4d 38          	mov    rcx,QWORD PTR [rbp+0x38]
   2fc4c4002:	48 8b 09             	mov    rcx,QWORD PTR [rcx]
   2fc4c4005:	48 63 49 3c          	movsxd rcx,DWORD PTR [rcx+0x3c]
   2fc4c4009:	48 01 c8             	add    rax,rcx
   2fc4c400c:	48 8b 4d 40          	mov    rcx,QWORD PTR [rbp+0x40]
   2fc4c4010:	48 89 01             	mov    QWORD PTR [rcx],rax
   2fc4c4013:	48 8b 45 20          	mov    rax,QWORD PTR [rbp+0x20]
   2fc4c4017:	48 8b 00             	mov    rax,QWORD PTR [rax]
   2fc4c401a:	48 8b 4d 48          	mov    rcx,QWORD PTR [rbp+0x48]
   2fc4c401e:	48 89 01             	mov    QWORD PTR [rcx],rax
   2fc4c4021:	48 8b 45 20          	mov    rax,QWORD PTR [rbp+0x20]
   2fc4c4025:	48 8b 00             	mov    rax,QWORD PTR [rax]
   2fc4c4028:	48 89 85 18 02 00 00 	mov    QWORD PTR [rbp+0x218],rax
   2fc4c402f:	c7 45 00 cd f8 57 cb 	mov    DWORD PTR [rbp+0x0],0xcb57f8cd
   2fc4c4036:	e9 42 2c 00 00       	jmp    2fc4c6c7d <DllRegisterServer+0x56dd>
   2fc4c403b:	48 8b 45 48          	mov    rax,QWORD PTR [rbp+0x48]
   2fc4c403f:	48 8b 08             	mov    rcx,QWORD PTR [rax]
   2fc4c4042:	48 83 ec 20          	sub    rsp,0x20
   2fc4c4046:	e8 25 31 00 00       	call   2fc4c7170 <StrLen>
   2fc4c404b:	48 83 c4 20          	add    rsp,0x20
   2fc4c404f:	48 8b 8d 18 02 00 00 	mov    rcx,QWORD PTR [rbp+0x218]
   2fc4c4056:	48 01 c1             	add    rcx,rax
   2fc4c4059:	48 81 c1 01 00 00 00 	add    rcx,0x1
   2fc4c4060:	48 8b 45 50          	mov    rax,QWORD PTR [rbp+0x50]
   2fc4c4064:	48 89 08             	mov    QWORD PTR [rax],rcx
   2fc4c4067:	c7 45 00 b2 df e8 c1 	mov    DWORD PTR [rbp+0x0],0xc1e8dfb2
   2fc4c406e:	e9 0a 2c 00 00       	jmp    2fc4c6c7d <DllRegisterServer+0x56dd>
   2fc4c4073:	48 8b 45 50          	mov    rax,QWORD PTR [rbp+0x50]
   2fc4c4077:	48 8b 00             	mov    rax,QWORD PTR [rax]
   2fc4c407a:	48 8b 4d 50          	mov    rcx,QWORD PTR [rbp+0x50]
   2fc4c407e:	48 8b 09             	mov    rcx,QWORD PTR [rcx]
   2fc4c4081:	48 83 ec 20          	sub    rsp,0x20
   2fc4c4085:	48 89 45 b8          	mov    QWORD PTR [rbp-0x48],rax
   2fc4c4089:	e8 e2 30 00 00       	call   2fc4c7170 <StrLen>
   2fc4c408e:	48 83 c4 20          	add    rsp,0x20
   2fc4c4092:	48 8b 4d b8          	mov    rcx,QWORD PTR [rbp-0x48]
   2fc4c4096:	48 01 c1             	add    rcx,rax
   2fc4c4099:	48 81 c1 01 00 00 00 	add    rcx,0x1
   2fc4c40a0:	48 89 8d 20 02 00 00 	mov    QWORD PTR [rbp+0x220],rcx
   2fc4c40a7:	c7 45 00 ca 9e 89 b0 	mov    DWORD PTR [rbp+0x0],0xb0899eca
   2fc4c40ae:	e9 ca 2b 00 00       	jmp    2fc4c6c7d <DllRegisterServer+0x56dd>
   2fc4c40b3:	48 8b 45 58          	mov    rax,QWORD PTR [rbp+0x58]
   2fc4c40b7:	48 8b 8d 20 02 00 00 	mov    rcx,QWORD PTR [rbp+0x220]
   2fc4c40be:	48 89 08             	mov    QWORD PTR [rax],rcx
   2fc4c40c1:	48 8b 45 58          	mov    rax,QWORD PTR [rbp+0x58]
   2fc4c40c5:	48 8b 00             	mov    rax,QWORD PTR [rax]
   2fc4c40c8:	48 89 85 28 02 00 00 	mov    QWORD PTR [rbp+0x228],rax
   2fc4c40cf:	c7 45 00 1e 3b be 73 	mov    DWORD PTR [rbp+0x0],0x73be3b1e
   2fc4c40d6:	e9 a2 2b 00 00       	jmp    2fc4c6c7d <DllRegisterServer+0x56dd>
   2fc4c40db:	48 8b 45 58          	mov    rax,QWORD PTR [rbp+0x58]
   2fc4c40df:	48 8b 08             	mov    rcx,QWORD PTR [rax]
   2fc4c40e2:	48 83 ec 20          	sub    rsp,0x20
   2fc4c40e6:	e8 85 30 00 00       	call   2fc4c7170 <StrLen>
   2fc4c40eb:	48 83 c4 20          	add    rsp,0x20
   2fc4c40ef:	48 8b 8d 28 02 00 00 	mov    rcx,QWORD PTR [rbp+0x228]
   2fc4c40f6:	48 01 c1             	add    rcx,rax
   2fc4c40f9:	48 89 8d 30 02 00 00 	mov    QWORD PTR [rbp+0x230],rcx
   2fc4c4100:	c7 45 00 43 72 f4 70 	mov    DWORD PTR [rbp+0x0],0x70f47243
   2fc4c4107:	e9 71 2b 00 00       	jmp    2fc4c6c7d <DllRegisterServer+0x56dd>
   2fc4c410c:	48 8b 85 30 02 00 00 	mov    rax,QWORD PTR [rbp+0x230]
   2fc4c4113:	48 05 01 00 00 00    	add    rax,0x1
   2fc4c4119:	48 8b 4d 60          	mov    rcx,QWORD PTR [rbp+0x60]
   2fc4c411d:	48 89 01             	mov    QWORD PTR [rcx],rax
   2fc4c4120:	48 8b 45 60          	mov    rax,QWORD PTR [rbp+0x60]
   2fc4c4124:	48 8b 00             	mov    rax,QWORD PTR [rax]
   2fc4c4127:	48 8b 4d 60          	mov    rcx,QWORD PTR [rbp+0x60]
   2fc4c412b:	48 8b 09             	mov    rcx,QWORD PTR [rcx]
   2fc4c412e:	48 83 ec 20          	sub    rsp,0x20
   2fc4c4132:	48 89 45 b0          	mov    QWORD PTR [rbp-0x50],rax
   2fc4c4136:	e8 35 30 00 00       	call   2fc4c7170 <StrLen>
   2fc4c413b:	48 83 c4 20          	add    rsp,0x20
   2fc4c413f:	48 8b 4d b0          	mov    rcx,QWORD PTR [rbp-0x50]
   2fc4c4143:	48 01 c1             	add    rcx,rax
   2fc4c4146:	48 89 8d 38 02 00 00 	mov    QWORD PTR [rbp+0x238],rcx
   2fc4c414d:	c7 45 00 df cb e9 6e 	mov    DWORD PTR [rbp+0x0],0x6ee9cbdf
   2fc4c4154:	e9 24 2b 00 00       	jmp    2fc4c6c7d <DllRegisterServer+0x56dd>
   2fc4c4159:	48 8b 85 38 02 00 00 	mov    rax,QWORD PTR [rbp+0x238]
   2fc4c4160:	48 05 01 00 00 00    	add    rax,0x1
   2fc4c4166:	48 8b 4d 68          	mov    rcx,QWORD PTR [rbp+0x68]
   2fc4c416a:	48 89 01             	mov    QWORD PTR [rcx],rax
   2fc4c416d:	48 8b 45 68          	mov    rax,QWORD PTR [rbp+0x68]
   2fc4c4171:	48 8b 00             	mov    rax,QWORD PTR [rax]
   2fc4c4174:	48 8b 4d 68          	mov    rcx,QWORD PTR [rbp+0x68]
   2fc4c4178:	48 8b 09             	mov    rcx,QWORD PTR [rcx]
   2fc4c417b:	48 83 ec 20          	sub    rsp,0x20
   2fc4c417f:	48 89 45 a8          	mov    QWORD PTR [rbp-0x58],rax
   2fc4c4183:	e8 e8 2f 00 00       	call   2fc4c7170 <StrLen>
   2fc4c4188:	48 83 c4 20          	add    rsp,0x20
   2fc4c418c:	48 8b 4d a8          	mov    rcx,QWORD PTR [rbp-0x58]
   2fc4c4190:	48 01 c1             	add    rcx,rax
   2fc4c4193:	48 81 c1 01 00 00 00 	add    rcx,0x1
   2fc4c419a:	48 8b 45 70          	mov    rax,QWORD PTR [rbp+0x70]
   2fc4c419e:	48 89 08             	mov    QWORD PTR [rax],rcx
   2fc4c41a1:	48 8b 45 70          	mov    rax,QWORD PTR [rbp+0x70]
   2fc4c41a5:	48 8b 00             	mov    rax,QWORD PTR [rax]
   2fc4c41a8:	48 8b 4d 70          	mov    rcx,QWORD PTR [rbp+0x70]
   2fc4c41ac:	48 8b 09             	mov    rcx,QWORD PTR [rcx]
   2fc4c41af:	48 83 ec 20          	sub    rsp,0x20
   2fc4c41b3:	48 89 45 a0          	mov    QWORD PTR [rbp-0x60],rax
   2fc4c41b7:	e8 b4 2f 00 00       	call   2fc4c7170 <StrLen>
   2fc4c41bc:	48 83 c4 20          	add    rsp,0x20
   2fc4c41c0:	48 8b 4d a0          	mov    rcx,QWORD PTR [rbp-0x60]
   2fc4c41c4:	48 01 c1             	add    rcx,rax
   2fc4c41c7:	48 81 c1 01 00 00 00 	add    rcx,0x1
   2fc4c41ce:	48 8b 45 78          	mov    rax,QWORD PTR [rbp+0x78]
   2fc4c41d2:	48 89 08             	mov    QWORD PTR [rax],rcx
   2fc4c41d5:	48 8b 45 50          	mov    rax,QWORD PTR [rbp+0x50]
   2fc4c41d9:	48 8b 08             	mov    rcx,QWORD PTR [rax]
   2fc4c41dc:	48 83 ec 20          	sub    rsp,0x20
   2fc4c41e0:	e8 fb 42 00 00       	call   2fc4c84e0 <_GetModuleBase>
   2fc4c41e5:	48 83 c4 20          	add    rsp,0x20
   2fc4c41e9:	48 8b 4d 58          	mov    rcx,QWORD PTR [rbp+0x58]
   2fc4c41ed:	48 8b 11             	mov    rdx,QWORD PTR [rcx]
   2fc4c41f0:	48 83 ec 20          	sub    rsp,0x20
   2fc4c41f4:	48 89 c1             	mov    rcx,rax
   2fc4c41f7:	e8 64 33 00 00       	call   2fc4c7560 <_GetProcAddr>
   2fc4c41fc:	48 83 c4 20          	add    rsp,0x20
   2fc4c4200:	48 8b 4d 70          	mov    rcx,QWORD PTR [rbp+0x70]
   2fc4c4204:	48 8b 09             	mov    rcx,QWORD PTR [rcx]
   2fc4c4207:	48 83 ec 20          	sub    rsp,0x20
   2fc4c420b:	ff d0                	call   rax
   2fc4c420d:	48 83 c4 20          	add    rsp,0x20
   2fc4c4211:	48 8b 4d 68          	mov    rcx,QWORD PTR [rbp+0x68]
   2fc4c4215:	48 8b 11             	mov    rdx,QWORD PTR [rcx]
   2fc4c4218:	48 83 ec 20          	sub    rsp,0x20
   2fc4c421c:	48 89 c1             	mov    rcx,rax
   2fc4c421f:	e8 3c 33 00 00       	call   2fc4c7560 <_GetProcAddr>
   2fc4c4224:	48 83 c4 20          	add    rsp,0x20
   2fc4c4228:	48 89 85 40 02 00 00 	mov    QWORD PTR [rbp+0x240],rax
   2fc4c422f:	48 8b 45 78          	mov    rax,QWORD PTR [rbp+0x78]
   2fc4c4233:	48 8b 00             	mov    rax,QWORD PTR [rax]
   2fc4c4236:	48 89 85 48 02 00 00 	mov    QWORD PTR [rbp+0x248],rax
   2fc4c423d:	48 8b 45 78          	mov    rax,QWORD PTR [rbp+0x78]
   2fc4c4241:	48 8b 00             	mov    rax,QWORD PTR [rax]
   2fc4c4244:	48 89 85 50 02 00 00 	mov    QWORD PTR [rbp+0x250],rax
   2fc4c424b:	c7 45 00 25 6f bb 10 	mov    DWORD PTR [rbp+0x0],0x10bb6f25
   2fc4c4252:	e9 26 2a 00 00       	jmp    2fc4c6c7d <DllRegisterServer+0x56dd>
   2fc4c4257:	31 c0                	xor    eax,eax
   2fc4c4259:	89 c1                	mov    ecx,eax
   2fc4c425b:	48 8b 95 40 02 00 00 	mov    rdx,QWORD PTR [rbp+0x240]
   2fc4c4262:	4c 8b 85 48 02 00 00 	mov    r8,QWORD PTR [rbp+0x248]
   2fc4c4269:	4c 8b 8d 50 02 00 00 	mov    r9,QWORD PTR [rbp+0x250]
   2fc4c4270:	48 83 ec 30          	sub    rsp,0x30
   2fc4c4274:	48 89 55 98          	mov    QWORD PTR [rbp-0x68],rdx
   2fc4c4278:	4c 89 c2             	mov    rdx,r8
   2fc4c427b:	4d 89 c8             	mov    r8,r9
   2fc4c427e:	41 b9 10 00 00 00    	mov    r9d,0x10
   2fc4c4284:	48 c7 44 24 20 00 00 	mov    QWORD PTR [rsp+0x20],0x0
   2fc4c428b:	00 00 
   2fc4c428d:	41 ba 88 13 00 00    	mov    r10d,0x1388
   2fc4c4293:	4c 89 54 24 28       	mov    QWORD PTR [rsp+0x28],r10
   2fc4c4298:	4c 8b 55 98          	mov    r10,QWORD PTR [rbp-0x68]
   2fc4c429c:	41 ff d2             	call   r10
   2fc4c429f:	48 83 c4 30          	add    rsp,0x30
   2fc4c42a3:	48 8b 4d 50          	mov    rcx,QWORD PTR [rbp+0x50]
   2fc4c42a7:	48 8b 09             	mov    rcx,QWORD PTR [rcx]
   2fc4c42aa:	48 83 ec 20          	sub    rsp,0x20
   2fc4c42ae:	48 89 45 90          	mov    QWORD PTR [rbp-0x70],rax
   2fc4c42b2:	e8 29 42 00 00       	call   2fc4c84e0 <_GetModuleBase>
   2fc4c42b7:	48 83 c4 20          	add    rsp,0x20
   2fc4c42bb:	48 8b 4d 48          	mov    rcx,QWORD PTR [rbp+0x48]
   2fc4c42bf:	48 8b 11             	mov    rdx,QWORD PTR [rcx]
   2fc4c42c2:	48 83 ec 20          	sub    rsp,0x20
   2fc4c42c6:	48 89 c1             	mov    rcx,rax
   2fc4c42c9:	e8 92 32 00 00       	call   2fc4c7560 <_GetProcAddr>
   2fc4c42ce:	48 83 c4 20          	add    rsp,0x20
   2fc4c42d2:	48 89 85 58 02 00 00 	mov    QWORD PTR [rbp+0x258],rax
   2fc4c42d9:	c7 45 00 42 79 b7 cb 	mov    DWORD PTR [rbp+0x0],0xcbb77942
   2fc4c42e0:	e9 98 29 00 00       	jmp    2fc4c6c7d <DllRegisterServer+0x56dd>
   2fc4c42e5:	48 8b 85 58 02 00 00 	mov    rax,QWORD PTR [rbp+0x258]
   2fc4c42ec:	48 89 85 60 02 00 00 	mov    QWORD PTR [rbp+0x260],rax
   2fc4c42f3:	c7 45 00 b1 c4 ba c8 	mov    DWORD PTR [rbp+0x0],0xc8bac4b1
   2fc4c42fa:	e9 7e 29 00 00       	jmp    2fc4c6c7d <DllRegisterServer+0x56dd>
   2fc4c42ff:	31 c0                	xor    eax,eax
   2fc4c4301:	89 c1                	mov    ecx,eax
   2fc4c4303:	48 8b 55 40          	mov    rdx,QWORD PTR [rbp+0x40]
   2fc4c4307:	48 8b 12             	mov    rdx,QWORD PTR [rdx]
   2fc4c430a:	8b 42 50             	mov    eax,DWORD PTR [rdx+0x50]
   2fc4c430d:	89 c2                	mov    edx,eax
   2fc4c430f:	4c 8b 85 60 02 00 00 	mov    r8,QWORD PTR [rbp+0x260]
   2fc4c4316:	48 83 ec 20          	sub    rsp,0x20
   2fc4c431a:	41 b9 00 30 00 00    	mov    r9d,0x3000
   2fc4c4320:	4c 89 45 88          	mov    QWORD PTR [rbp-0x78],r8
   2fc4c4324:	4d 89 c8             	mov    r8,r9
   2fc4c4327:	41 b9 40 00 00 00    	mov    r9d,0x40
   2fc4c432d:	4c 8b 55 88          	mov    r10,QWORD PTR [rbp-0x78]
   2fc4c4331:	41 ff d2             	call   r10
   2fc4c4334:	48 83 c4 20          	add    rsp,0x20
   2fc4c4338:	48 8b 8d 80 00 00 00 	mov    rcx,QWORD PTR [rbp+0x80]
   2fc4c433f:	48 89 01             	mov    QWORD PTR [rcx],rax
   2fc4c4342:	48 8b 45 40          	mov    rax,QWORD PTR [rbp+0x40]
   2fc4c4346:	48 8b 00             	mov    rax,QWORD PTR [rax]
   2fc4c4349:	48 05 08 01 00 00    	add    rax,0x108
   2fc4c434f:	48 8b 8d 88 00 00 00 	mov    rcx,QWORD PTR [rbp+0x88]
   2fc4c4356:	48 89 01             	mov    QWORD PTR [rcx],rax
   2fc4c4359:	48 8b 85 90 00 00 00 	mov    rax,QWORD PTR [rbp+0x90]
   2fc4c4360:	c7 00 00 00 00 00    	mov    DWORD PTR [rax],0x0
   2fc4c4366:	c7 45 00 bf b4 e6 81 	mov    DWORD PTR [rbp+0x0],0x81e6b4bf
   2fc4c436d:	e9 0b 29 00 00       	jmp    2fc4c6c7d <DllRegisterServer+0x56dd>
   2fc4c4372:	48 8b 85 90 00 00 00 	mov    rax,QWORD PTR [rbp+0x90]
   2fc4c4379:	8b 08                	mov    ecx,DWORD PTR [rax]
   2fc4c437b:	89 8d 6c 02 00 00    	mov    DWORD PTR [rbp+0x26c],ecx
   2fc4c4381:	c7 45 00 3c 9d ce 74 	mov    DWORD PTR [rbp+0x0],0x74ce9d3c
   2fc4c4388:	e9 f0 28 00 00       	jmp    2fc4c6c7d <DllRegisterServer+0x56dd>
   2fc4c438d:	48 8b 45 40          	mov    rax,QWORD PTR [rbp+0x40]
   2fc4c4391:	48 8b 00             	mov    rax,QWORD PTR [rax]
   2fc4c4394:	48 89 85 70 02 00 00 	mov    QWORD PTR [rbp+0x270],rax
   2fc4c439b:	c7 45 00 e8 89 7d 42 	mov    DWORD PTR [rbp+0x0],0x427d89e8
   2fc4c43a2:	e9 d6 28 00 00       	jmp    2fc4c6c7d <DllRegisterServer+0x56dd>
   2fc4c43a7:	48 8b 85 70 02 00 00 	mov    rax,QWORD PTR [rbp+0x270]
   2fc4c43ae:	48 05 04 00 00 00    	add    rax,0x4
   2fc4c43b4:	48 89 85 78 02 00 00 	mov    QWORD PTR [rbp+0x278],rax
   2fc4c43bb:	c7 45 00 f0 ed d9 3e 	mov    DWORD PTR [rbp+0x0],0x3ed9edf0
   2fc4c43c2:	e9 b6 28 00 00       	jmp    2fc4c6c7d <DllRegisterServer+0x56dd>
   2fc4c43c7:	48 8b 85 78 02 00 00 	mov    rax,QWORD PTR [rbp+0x278]
   2fc4c43ce:	48 05 02 00 00 00    	add    rax,0x2
   2fc4c43d4:	48 89 85 80 02 00 00 	mov    QWORD PTR [rbp+0x280],rax
   2fc4c43db:	c7 45 00 cc 94 16 e1 	mov    DWORD PTR [rbp+0x0],0xe11694cc
   2fc4c43e2:	e9 96 28 00 00       	jmp    2fc4c6c7d <DllRegisterServer+0x56dd>
   2fc4c43e7:	48 8b 85 80 02 00 00 	mov    rax,QWORD PTR [rbp+0x280]
   2fc4c43ee:	66 8b 08             	mov    cx,WORD PTR [rax]
   2fc4c43f1:	66 89 8d 8e 02 00 00 	mov    WORD PTR [rbp+0x28e],cx
   2fc4c43f8:	c7 45 00 be 0a ab c1 	mov    DWORD PTR [rbp+0x0],0xc1ab0abe
   2fc4c43ff:	e9 79 28 00 00       	jmp    2fc4c6c7d <DllRegisterServer+0x56dd>
   2fc4c4404:	66 8b 85 8e 02 00 00 	mov    ax,WORD PTR [rbp+0x28e]
   2fc4c440b:	0f b7 c8             	movzx  ecx,ax
   2fc4c440e:	89 8d 90 02 00 00    	mov    DWORD PTR [rbp+0x290],ecx
   2fc4c4414:	c7 45 00 46 00 81 2f 	mov    DWORD PTR [rbp+0x0],0x2f810046
   2fc4c441b:	e9 5d 28 00 00       	jmp    2fc4c6c7d <DllRegisterServer+0x56dd>
   2fc4c4420:	8b 85 6c 02 00 00    	mov    eax,DWORD PTR [rbp+0x26c]
   2fc4c4426:	8b 8d 90 02 00 00    	mov    ecx,DWORD PTR [rbp+0x290]
   2fc4c442c:	39 c8                	cmp    eax,ecx
   2fc4c442e:	0f 9c c2             	setl   dl
   2fc4c4431:	80 e2 01             	and    dl,0x1
   2fc4c4434:	88 95 97 02 00 00    	mov    BYTE PTR [rbp+0x297],dl
   2fc4c443a:	c7 45 00 ae 0a e1 83 	mov    DWORD PTR [rbp+0x0],0x83e10aae
   2fc4c4441:	e9 37 28 00 00       	jmp    2fc4c6c7d <DllRegisterServer+0x56dd>
   2fc4c4446:	8a 85 97 02 00 00    	mov    al,BYTE PTR [rbp+0x297]
   2fc4c444c:	a8 01                	test   al,0x1
   2fc4c444e:	b9 17 ee e2 5d       	mov    ecx,0x5de2ee17
   2fc4c4453:	ba 69 f3 a1 56       	mov    edx,0x56a1f369
   2fc4c4458:	0f 45 d1             	cmovne edx,ecx
   2fc4c445b:	89 55 00             	mov    DWORD PTR [rbp+0x0],edx
   2fc4c445e:	e9 1a 28 00 00       	jmp    2fc4c6c7d <DllRegisterServer+0x56dd>
   2fc4c4463:	48 8b 85 80 00 00 00 	mov    rax,QWORD PTR [rbp+0x80]
   2fc4c446a:	48 8b 00             	mov    rax,QWORD PTR [rax]
   2fc4c446d:	48 89 85 98 02 00 00 	mov    QWORD PTR [rbp+0x298],rax
   2fc4c4474:	48 8b 85 88 00 00 00 	mov    rax,QWORD PTR [rbp+0x88]
   2fc4c447b:	48 8b 00             	mov    rax,QWORD PTR [rax]
   2fc4c447e:	48 89 85 a0 02 00 00 	mov    QWORD PTR [rbp+0x2a0],rax
   2fc4c4485:	48 8b 85 90 00 00 00 	mov    rax,QWORD PTR [rbp+0x90]
   2fc4c448c:	8b 08                	mov    ecx,DWORD PTR [rax]
   2fc4c448e:	89 8d ac 02 00 00    	mov    DWORD PTR [rbp+0x2ac],ecx
   2fc4c4494:	c7 45 00 93 60 c6 06 	mov    DWORD PTR [rbp+0x0],0x6c66093
   2fc4c449b:	e9 dd 27 00 00       	jmp    2fc4c6c7d <DllRegisterServer+0x56dd>
   2fc4c44a0:	8b 85 ac 02 00 00    	mov    eax,DWORD PTR [rbp+0x2ac]
   2fc4c44a6:	48 63 c8             	movsxd rcx,eax
   2fc4c44a9:	48 8b 95 a0 02 00 00 	mov    rdx,QWORD PTR [rbp+0x2a0]
   2fc4c44b0:	48 69 c9 28 00 00 00 	imul   rcx,rcx,0x28
   2fc4c44b7:	48 01 ca             	add    rdx,rcx
   2fc4c44ba:	8b 42 0c             	mov    eax,DWORD PTR [rdx+0xc]
   2fc4c44bd:	89 c1                	mov    ecx,eax
   2fc4c44bf:	48 89 8d b0 02 00 00 	mov    QWORD PTR [rbp+0x2b0],rcx
   2fc4c44c6:	c7 45 00 66 8a b4 eb 	mov    DWORD PTR [rbp+0x0],0xebb48a66
   2fc4c44cd:	e9 ab 27 00 00       	jmp    2fc4c6c7d <DllRegisterServer+0x56dd>
   2fc4c44d2:	48 8b 85 98 02 00 00 	mov    rax,QWORD PTR [rbp+0x298]
   2fc4c44d9:	48 8b 8d b0 02 00 00 	mov    rcx,QWORD PTR [rbp+0x2b0]
   2fc4c44e0:	48 01 c8             	add    rax,rcx
   2fc4c44e3:	48 8b 8d 98 00 00 00 	mov    rcx,QWORD PTR [rbp+0x98]
   2fc4c44ea:	48 89 01             	mov    QWORD PTR [rcx],rax
   2fc4c44ed:	48 8b 85 98 00 00 00 	mov    rax,QWORD PTR [rbp+0x98]
   2fc4c44f4:	48 8b 00             	mov    rax,QWORD PTR [rax]
   2fc4c44f7:	48 89 85 b8 02 00 00 	mov    QWORD PTR [rbp+0x2b8],rax
   2fc4c44fe:	48 8b 45 10          	mov    rax,QWORD PTR [rbp+0x10]
   2fc4c4502:	48 8b 00             	mov    rax,QWORD PTR [rax]
   2fc4c4505:	48 89 85 c0 02 00 00 	mov    QWORD PTR [rbp+0x2c0],rax
   2fc4c450c:	c7 45 00 a7 53 b7 01 	mov    DWORD PTR [rbp+0x0],0x1b753a7
   2fc4c4513:	e9 65 27 00 00       	jmp    2fc4c6c7d <DllRegisterServer+0x56dd>
   2fc4c4518:	48 8b 85 88 00 00 00 	mov    rax,QWORD PTR [rbp+0x88]
   2fc4c451f:	48 8b 00             	mov    rax,QWORD PTR [rax]
   2fc4c4522:	48 89 85 c8 02 00 00 	mov    QWORD PTR [rbp+0x2c8],rax
   2fc4c4529:	48 8b 85 90 00 00 00 	mov    rax,QWORD PTR [rbp+0x90]
   2fc4c4530:	48 63 00             	movsxd rax,DWORD PTR [rax]
   2fc4c4533:	48 89 85 d0 02 00 00 	mov    QWORD PTR [rbp+0x2d0],rax
   2fc4c453a:	c7 45 00 1a 95 6e 15 	mov    DWORD PTR [rbp+0x0],0x156e951a
   2fc4c4541:	e9 37 27 00 00       	jmp    2fc4c6c7d <DllRegisterServer+0x56dd>
   2fc4c4546:	48 8b 85 c8 02 00 00 	mov    rax,QWORD PTR [rbp+0x2c8]
   2fc4c454d:	48 8b 8d d0 02 00 00 	mov    rcx,QWORD PTR [rbp+0x2d0]
   2fc4c4554:	48 69 c9 28 00 00 00 	imul   rcx,rcx,0x28
   2fc4c455b:	48 01 c8             	add    rax,rcx
   2fc4c455e:	48 89 85 d8 02 00 00 	mov    QWORD PTR [rbp+0x2d8],rax
   2fc4c4565:	c7 45 00 b2 a2 4d 00 	mov    DWORD PTR [rbp+0x0],0x4da2b2
   2fc4c456c:	e9 0c 27 00 00       	jmp    2fc4c6c7d <DllRegisterServer+0x56dd>
   2fc4c4571:	48 8b 85 d8 02 00 00 	mov    rax,QWORD PTR [rbp+0x2d8]
   2fc4c4578:	8b 48 14             	mov    ecx,DWORD PTR [rax+0x14]
   2fc4c457b:	89 c8                	mov    eax,ecx
   2fc4c457d:	48 8b 95 c0 02 00 00 	mov    rdx,QWORD PTR [rbp+0x2c0]
   2fc4c4584:	48 01 c2             	add    rdx,rax
   2fc4c4587:	48 89 95 e0 02 00 00 	mov    QWORD PTR [rbp+0x2e0],rdx
   2fc4c458e:	c7 45 00 9c 32 f8 81 	mov    DWORD PTR [rbp+0x0],0x81f8329c
   2fc4c4595:	e9 e3 26 00 00       	jmp    2fc4c6c7d <DllRegisterServer+0x56dd>
   2fc4c459a:	48 8b 85 88 00 00 00 	mov    rax,QWORD PTR [rbp+0x88]
   2fc4c45a1:	48 8b 00             	mov    rax,QWORD PTR [rax]
   2fc4c45a4:	48 89 85 e8 02 00 00 	mov    QWORD PTR [rbp+0x2e8],rax
   2fc4c45ab:	c7 45 00 3b b9 dc 49 	mov    DWORD PTR [rbp+0x0],0x49dcb93b
   2fc4c45b2:	e9 c6 26 00 00       	jmp    2fc4c6c7d <DllRegisterServer+0x56dd>
   2fc4c45b7:	48 8b 85 90 00 00 00 	mov    rax,QWORD PTR [rbp+0x90]
   2fc4c45be:	48 63 00             	movsxd rax,DWORD PTR [rax]
   2fc4c45c1:	48 8b 8d e8 02 00 00 	mov    rcx,QWORD PTR [rbp+0x2e8]
   2fc4c45c8:	48 69 c0 28 00 00 00 	imul   rax,rax,0x28
   2fc4c45cf:	48 01 c1             	add    rcx,rax
   2fc4c45d2:	48 89 8d f0 02 00 00 	mov    QWORD PTR [rbp+0x2f0],rcx
   2fc4c45d9:	c7 45 00 d2 e1 87 24 	mov    DWORD PTR [rbp+0x0],0x2487e1d2
   2fc4c45e0:	e9 98 26 00 00       	jmp    2fc4c6c7d <DllRegisterServer+0x56dd>
   2fc4c45e5:	48 8b 85 f0 02 00 00 	mov    rax,QWORD PTR [rbp+0x2f0]
   2fc4c45ec:	48 05 10 00 00 00    	add    rax,0x10
   2fc4c45f2:	48 89 85 f8 02 00 00 	mov    QWORD PTR [rbp+0x2f8],rax
   2fc4c45f9:	c7 45 00 36 f3 90 48 	mov    DWORD PTR [rbp+0x0],0x4890f336
   2fc4c4600:	e9 78 26 00 00       	jmp    2fc4c6c7d <DllRegisterServer+0x56dd>
   2fc4c4605:	48 8b 85 f8 02 00 00 	mov    rax,QWORD PTR [rbp+0x2f8]
   2fc4c460c:	8b 08                	mov    ecx,DWORD PTR [rax]
   2fc4c460e:	89 8d 04 03 00 00    	mov    DWORD PTR [rbp+0x304],ecx
   2fc4c4614:	c7 45 00 c2 c7 ef 91 	mov    DWORD PTR [rbp+0x0],0x91efc7c2
   2fc4c461b:	e9 5d 26 00 00       	jmp    2fc4c6c7d <DllRegisterServer+0x56dd>
   2fc4c4620:	8b 85 04 03 00 00    	mov    eax,DWORD PTR [rbp+0x304]
   2fc4c4626:	89 c0                	mov    eax,eax
   2fc4c4628:	41 89 c0             	mov    r8d,eax
   2fc4c462b:	48 8b 8d b8 02 00 00 	mov    rcx,QWORD PTR [rbp+0x2b8]
   2fc4c4632:	48 8b 95 e0 02 00 00 	mov    rdx,QWORD PTR [rbp+0x2e0]
   2fc4c4639:	48 83 ec 20          	sub    rsp,0x20
   2fc4c463d:	e8 4e 26 00 00       	call   2fc4c6c90 <MemCpy>
   2fc4c4642:	48 83 c4 20          	add    rsp,0x20
   2fc4c4646:	c7 45 00 8b d2 e1 2e 	mov    DWORD PTR [rbp+0x0],0x2ee1d28b
   2fc4c464d:	e9 2b 26 00 00       	jmp    2fc4c6c7d <DllRegisterServer+0x56dd>
   2fc4c4652:	48 8b 85 90 00 00 00 	mov    rax,QWORD PTR [rbp+0x90]
   2fc4c4659:	8b 08                	mov    ecx,DWORD PTR [rax]
   2fc4c465b:	89 8d 08 03 00 00    	mov    DWORD PTR [rbp+0x308],ecx
   2fc4c4661:	c7 45 00 a6 77 8a 5f 	mov    DWORD PTR [rbp+0x0],0x5f8a77a6
   2fc4c4668:	e9 10 26 00 00       	jmp    2fc4c6c7d <DllRegisterServer+0x56dd>
   2fc4c466d:	31 c0                	xor    eax,eax
   2fc4c466f:	8b 8d 08 03 00 00    	mov    ecx,DWORD PTR [rbp+0x308]
   2fc4c4675:	89 c2                	mov    edx,eax
   2fc4c4677:	81 ea 23 9b be 12    	sub    edx,0x12be9b23
   2fc4c467d:	41 89 c0             	mov    r8d,eax
   2fc4c4680:	41 29 d0             	sub    r8d,edx
   2fc4c4683:	89 c2                	mov    edx,eax
   2fc4c4685:	29 ca                	sub    edx,ecx
   2fc4c4687:	41 01 d0             	add    r8d,edx
   2fc4c468a:	89 c1                	mov    ecx,eax
   2fc4c468c:	81 e9 23 9b be 12    	sub    ecx,0x12be9b23
   2fc4c4692:	41 01 c8             	add    r8d,ecx
   2fc4c4695:	89 c1                	mov    ecx,eax
   2fc4c4697:	81 e9 ec 53 9b e1    	sub    ecx,0xe19b53ec
   2fc4c469d:	83 c1 00             	add    ecx,0x0
   2fc4c46a0:	81 e9 08 cc 36 9c    	sub    ecx,0x9c36cc08
   2fc4c46a6:	83 e9 01             	sub    ecx,0x1
   2fc4c46a9:	81 c1 08 cc 36 9c    	add    ecx,0x9c36cc08
   2fc4c46af:	81 e9 26 16 6a 93    	sub    ecx,0x936a1626
   2fc4c46b5:	81 c1 ec 53 9b e1    	add    ecx,0xe19b53ec
   2fc4c46bb:	81 c1 26 16 6a 93    	add    ecx,0x936a1626
   2fc4c46c1:	89 c2                	mov    edx,eax
   2fc4c46c3:	44 29 c2             	sub    edx,r8d
   2fc4c46c6:	83 c2 00             	add    edx,0x0
   2fc4c46c9:	41 b8 dc 88 c5 8c    	mov    r8d,0x8cc588dc
   2fc4c46cf:	41 83 c0 00          	add    r8d,0x0
   2fc4c46d3:	41 29 c8             	sub    r8d,ecx
   2fc4c46d6:	41 81 e8 dc 88 c5 8c 	sub    r8d,0x8cc588dc
   2fc4c46dd:	81 ea d5 d2 02 37    	sub    edx,0x3702d2d5
   2fc4c46e3:	44 01 c2             	add    edx,r8d
   2fc4c46e6:	81 c2 d5 d2 02 37    	add    edx,0x3702d2d5
   2fc4c46ec:	89 c1                	mov    ecx,eax
   2fc4c46ee:	29 d1                	sub    ecx,edx
   2fc4c46f0:	83 c1 00             	add    ecx,0x0
   2fc4c46f3:	2d 8a 80 16 37       	sub    eax,0x3716808a
   2fc4c46f8:	29 c8                	sub    eax,ecx
   2fc4c46fa:	05 8a 80 16 37       	add    eax,0x3716808a
   2fc4c46ff:	b9 70 80 dd 96       	mov    ecx,0x96dd8070
   2fc4c4704:	83 c1 00             	add    ecx,0x0
   2fc4c4707:	01 c1                	add    ecx,eax
   2fc4c4709:	81 e9 70 80 dd 96    	sub    ecx,0x96dd8070
   2fc4c470f:	89 8d 0c 03 00 00    	mov    DWORD PTR [rbp+0x30c],ecx
   2fc4c4715:	c7 45 00 29 78 a3 e2 	mov    DWORD PTR [rbp+0x0],0xe2a37829
   2fc4c471c:	e9 5c 25 00 00       	jmp    2fc4c6c7d <DllRegisterServer+0x56dd>
   2fc4c4721:	48 8b 85 90 00 00 00 	mov    rax,QWORD PTR [rbp+0x90]
   2fc4c4728:	8b 8d 0c 03 00 00    	mov    ecx,DWORD PTR [rbp+0x30c]
   2fc4c472e:	89 08                	mov    DWORD PTR [rax],ecx
   2fc4c4730:	c7 45 00 bb 36 ea 9b 	mov    DWORD PTR [rbp+0x0],0x9bea36bb
   2fc4c4737:	e9 41 25 00 00       	jmp    2fc4c6c7d <DllRegisterServer+0x56dd>
   2fc4c473c:	c7 45 00 bf b4 e6 81 	mov    DWORD PTR [rbp+0x0],0x81e6b4bf
   2fc4c4743:	e9 35 25 00 00       	jmp    2fc4c6c7d <DllRegisterServer+0x56dd>
   2fc4c4748:	48 8b 85 80 00 00 00 	mov    rax,QWORD PTR [rbp+0x80]
   2fc4c474f:	48 8b 00             	mov    rax,QWORD PTR [rax]
   2fc4c4752:	48 89 85 10 03 00 00 	mov    QWORD PTR [rbp+0x310],rax
   2fc4c4759:	c7 45 00 c2 49 6a ef 	mov    DWORD PTR [rbp+0x0],0xef6a49c2
   2fc4c4760:	e9 18 25 00 00       	jmp    2fc4c6c7d <DllRegisterServer+0x56dd>
   2fc4c4765:	48 8b 45 40          	mov    rax,QWORD PTR [rbp+0x40]
   2fc4c4769:	48 8b 00             	mov    rax,QWORD PTR [rax]
   2fc4c476c:	48 89 85 18 03 00 00 	mov    QWORD PTR [rbp+0x318],rax
   2fc4c4773:	c7 45 00 7d 39 c5 4d 	mov    DWORD PTR [rbp+0x0],0x4dc5397d
   2fc4c477a:	e9 fe 24 00 00       	jmp    2fc4c6c7d <DllRegisterServer+0x56dd>
   2fc4c477f:	48 8b 85 18 03 00 00 	mov    rax,QWORD PTR [rbp+0x318]
   2fc4c4786:	48 05 18 00 00 00    	add    rax,0x18
   2fc4c478c:	48 89 85 20 03 00 00 	mov    QWORD PTR [rbp+0x320],rax
   2fc4c4793:	c7 45 00 2a 4f 72 c6 	mov    DWORD PTR [rbp+0x0],0xc6724f2a
   2fc4c479a:	e9 de 24 00 00       	jmp    2fc4c6c7d <DllRegisterServer+0x56dd>
   2fc4c479f:	48 8b 85 20 03 00 00 	mov    rax,QWORD PTR [rbp+0x320]
   2fc4c47a6:	48 05 70 00 00 00    	add    rax,0x70
   2fc4c47ac:	48 89 85 28 03 00 00 	mov    QWORD PTR [rbp+0x328],rax
   2fc4c47b3:	c7 45 00 db 9c 55 43 	mov    DWORD PTR [rbp+0x0],0x43559cdb
   2fc4c47ba:	e9 be 24 00 00       	jmp    2fc4c6c7d <DllRegisterServer+0x56dd>
   2fc4c47bf:	48 8b 85 28 03 00 00 	mov    rax,QWORD PTR [rbp+0x328]
   2fc4c47c6:	48 05 28 00 00 00    	add    rax,0x28
   2fc4c47cc:	48 89 85 30 03 00 00 	mov    QWORD PTR [rbp+0x330],rax
   2fc4c47d3:	c7 45 00 a9 5e d0 fa 	mov    DWORD PTR [rbp+0x0],0xfad05ea9
   2fc4c47da:	e9 9e 24 00 00       	jmp    2fc4c6c7d <DllRegisterServer+0x56dd>
   2fc4c47df:	48 8b 85 30 03 00 00 	mov    rax,QWORD PTR [rbp+0x330]
   2fc4c47e6:	8b 08                	mov    ecx,DWORD PTR [rax]
   2fc4c47e8:	89 c8                	mov    eax,ecx
   2fc4c47ea:	48 89 85 38 03 00 00 	mov    QWORD PTR [rbp+0x338],rax
   2fc4c47f1:	c7 45 00 cf a9 42 97 	mov    DWORD PTR [rbp+0x0],0x9742a9cf
   2fc4c47f8:	e9 80 24 00 00       	jmp    2fc4c6c7d <DllRegisterServer+0x56dd>
   2fc4c47fd:	48 8b 85 10 03 00 00 	mov    rax,QWORD PTR [rbp+0x310]
   2fc4c4804:	48 8b 8d 38 03 00 00 	mov    rcx,QWORD PTR [rbp+0x338]
   2fc4c480b:	48 01 c8             	add    rax,rcx
   2fc4c480e:	48 89 85 40 03 00 00 	mov    QWORD PTR [rbp+0x340],rax
   2fc4c4815:	c7 45 00 fb c7 1a b6 	mov    DWORD PTR [rbp+0x0],0xb61ac7fb
   2fc4c481c:	e9 5c 24 00 00       	jmp    2fc4c6c7d <DllRegisterServer+0x56dd>
   2fc4c4821:	48 8b 85 a0 00 00 00 	mov    rax,QWORD PTR [rbp+0xa0]
   2fc4c4828:	48 8b 8d 40 03 00 00 	mov    rcx,QWORD PTR [rbp+0x340]
   2fc4c482f:	48 89 08             	mov    QWORD PTR [rax],rcx
   2fc4c4832:	48 8b 85 80 00 00 00 	mov    rax,QWORD PTR [rbp+0x80]
   2fc4c4839:	48 8b 00             	mov    rax,QWORD PTR [rax]
   2fc4c483c:	48 89 85 48 03 00 00 	mov    QWORD PTR [rbp+0x348],rax
   2fc4c4843:	48 8b 45 40          	mov    rax,QWORD PTR [rbp+0x40]
   2fc4c4847:	48 8b 00             	mov    rax,QWORD PTR [rax]
   2fc4c484a:	48 89 85 50 03 00 00 	mov    QWORD PTR [rbp+0x350],rax
   2fc4c4851:	c7 45 00 74 9d f9 37 	mov    DWORD PTR [rbp+0x0],0x37f99d74
   2fc4c4858:	e9 20 24 00 00       	jmp    2fc4c6c7d <DllRegisterServer+0x56dd>
   2fc4c485d:	48 8b 85 50 03 00 00 	mov    rax,QWORD PTR [rbp+0x350]
   2fc4c4864:	48 05 18 00 00 00    	add    rax,0x18
   2fc4c486a:	48 05 18 00 00 00    	add    rax,0x18
   2fc4c4870:	48 89 85 58 03 00 00 	mov    QWORD PTR [rbp+0x358],rax
   2fc4c4877:	c7 45 00 ef 18 82 11 	mov    DWORD PTR [rbp+0x0],0x118218ef
   2fc4c487e:	e9 fa 23 00 00       	jmp    2fc4c6c7d <DllRegisterServer+0x56dd>
   2fc4c4883:	31 c0                	xor    eax,eax
   2fc4c4885:	89 c1                	mov    ecx,eax
   2fc4c4887:	48 8b 95 58 03 00 00 	mov    rdx,QWORD PTR [rbp+0x358]
   2fc4c488e:	48 8b 12             	mov    rdx,QWORD PTR [rdx]
   2fc4c4891:	4c 8b 85 48 03 00 00 	mov    r8,QWORD PTR [rbp+0x348]
   2fc4c4898:	49 b9 21 44 5e 22 ae 	movabs r9,0x7b34aaae225e4421
   2fc4c489f:	aa 34 7b 
   2fc4c48a2:	49 89 ca             	mov    r10,rcx
   2fc4c48a5:	4d 29 ca             	sub    r10,r9
   2fc4c48a8:	4d 29 d0             	sub    r8,r10
   2fc4c48ab:	49 ba d5 88 3c 4e 20 	movabs r10,0xa76405204e3c88d5
   2fc4c48b2:	05 64 a7 
   2fc4c48b5:	4d 29 d0             	sub    r8,r10
   2fc4c48b8:	49 bb 2c 5a e3 1e c5 	movabs r11,0x1b8affc51ee35a2c
   2fc4c48bf:	ff 8a 1b 
   2fc4c48c2:	4d 29 d8             	sub    r8,r11
   2fc4c48c5:	4d 01 d0             	add    r8,r10
   2fc4c48c8:	49 ba a2 15 49 63 2c 	movabs r10,0x46164c2c634915a2
   2fc4c48cf:	4c 16 46 
   2fc4c48d2:	4d 29 d0             	sub    r8,r10
   2fc4c48d5:	4d 29 c8             	sub    r8,r9
   2fc4c48d8:	4d 01 d0             	add    r8,r10
   2fc4c48db:	49 b9 50 a6 18 92 d3 	movabs r9,0xbc3b9d39218a650
   2fc4c48e2:	b9 c3 0b 
   2fc4c48e5:	4d 89 ca             	mov    r10,r9
   2fc4c48e8:	49 81 c2 00 00 00 00 	add    r10,0x0
   2fc4c48ef:	49 29 d2             	sub    r10,rdx
   2fc4c48f2:	4d 29 ca             	sub    r10,r9
   2fc4c48f5:	48 89 ca             	mov    rdx,rcx
   2fc4c48f8:	4c 29 d2             	sub    rdx,r10
   2fc4c48fb:	49 29 d0             	sub    r8,rdx
   2fc4c48fe:	4c 29 d9             	sub    rcx,r11
   2fc4c4901:	48 81 c1 00 00 00 00 	add    rcx,0x0
   2fc4c4908:	48 ba a3 7b 37 2d e5 	movabs rdx,0x92c042e52d377ba3
   2fc4c490f:	42 c0 92 
   2fc4c4912:	49 01 d0             	add    r8,rdx
   2fc4c4915:	49 29 c8             	sub    r8,rcx
   2fc4c4918:	49 29 d0             	sub    r8,rdx
   2fc4c491b:	4c 89 85 60 03 00 00 	mov    QWORD PTR [rbp+0x360],r8
   2fc4c4922:	c7 45 00 7e 3e 4e 9f 	mov    DWORD PTR [rbp+0x0],0x9f4e3e7e
   2fc4c4929:	e9 4f 23 00 00       	jmp    2fc4c6c7d <DllRegisterServer+0x56dd>
   2fc4c492e:	48 8b 85 a8 00 00 00 	mov    rax,QWORD PTR [rbp+0xa8]
   2fc4c4935:	48 8b 8d 60 03 00 00 	mov    rcx,QWORD PTR [rbp+0x360]
   2fc4c493c:	48 89 08             	mov    QWORD PTR [rax],rcx
   2fc4c493f:	c7 45 00 1b 37 86 25 	mov    DWORD PTR [rbp+0x0],0x2586371b
   2fc4c4946:	e9 32 23 00 00       	jmp    2fc4c6c7d <DllRegisterServer+0x56dd>
   2fc4c494b:	48 8b 85 a0 00 00 00 	mov    rax,QWORD PTR [rbp+0xa0]
   2fc4c4952:	48 8b 00             	mov    rax,QWORD PTR [rax]
   2fc4c4955:	48 89 85 68 03 00 00 	mov    QWORD PTR [rbp+0x368],rax
   2fc4c495c:	c7 45 00 49 ce 53 05 	mov    DWORD PTR [rbp+0x0],0x553ce49
   2fc4c4963:	e9 15 23 00 00       	jmp    2fc4c6c7d <DllRegisterServer+0x56dd>
   2fc4c4968:	48 8b 85 68 03 00 00 	mov    rax,QWORD PTR [rbp+0x368]
   2fc4c496f:	48 89 85 70 03 00 00 	mov    QWORD PTR [rbp+0x370],rax
   2fc4c4976:	c7 45 00 04 eb c1 f2 	mov    DWORD PTR [rbp+0x0],0xf2c1eb04
   2fc4c497d:	e9 fb 22 00 00       	jmp    2fc4c6c7d <DllRegisterServer+0x56dd>
   2fc4c4982:	48 8b 85 70 03 00 00 	mov    rax,QWORD PTR [rbp+0x370]
   2fc4c4989:	8b 08                	mov    ecx,DWORD PTR [rax]
   2fc4c498b:	89 8d 78 03 00 00    	mov    DWORD PTR [rbp+0x378],ecx
   2fc4c4991:	c7 45 00 78 df 0e ea 	mov    DWORD PTR [rbp+0x0],0xea0edf78
   2fc4c4998:	e9 e0 22 00 00       	jmp    2fc4c6c7d <DllRegisterServer+0x56dd>
   2fc4c499d:	8b 85 78 03 00 00    	mov    eax,DWORD PTR [rbp+0x378]
   2fc4c49a3:	83 f8 00             	cmp    eax,0x0
   2fc4c49a6:	0f 95 c1             	setne  cl
   2fc4c49a9:	80 e1 01             	and    cl,0x1
   2fc4c49ac:	88 8d 7f 03 00 00    	mov    BYTE PTR [rbp+0x37f],cl
   2fc4c49b2:	c7 45 00 8b 35 de 46 	mov    DWORD PTR [rbp+0x0],0x46de358b
   2fc4c49b9:	e9 bf 22 00 00       	jmp    2fc4c6c7d <DllRegisterServer+0x56dd>
   2fc4c49be:	8a 85 7f 03 00 00    	mov    al,BYTE PTR [rbp+0x37f]
   2fc4c49c4:	a8 01                	test   al,0x1
   2fc4c49c6:	b9 43 a5 5a 22       	mov    ecx,0x225aa543
   2fc4c49cb:	ba 74 f4 cd 50       	mov    edx,0x50cdf474
   2fc4c49d0:	0f 45 d1             	cmovne edx,ecx
   2fc4c49d3:	89 55 00             	mov    DWORD PTR [rbp+0x0],edx
   2fc4c49d6:	e9 a2 22 00 00       	jmp    2fc4c6c7d <DllRegisterServer+0x56dd>
   2fc4c49db:	48 8b 85 a0 00 00 00 	mov    rax,QWORD PTR [rbp+0xa0]
   2fc4c49e2:	48 8b 00             	mov    rax,QWORD PTR [rax]
   2fc4c49e5:	48 89 85 80 03 00 00 	mov    QWORD PTR [rbp+0x380],rax
   2fc4c49ec:	c7 45 00 87 ab 2c fc 	mov    DWORD PTR [rbp+0x0],0xfc2cab87
   2fc4c49f3:	e9 85 22 00 00       	jmp    2fc4c6c7d <DllRegisterServer+0x56dd>
   2fc4c49f8:	48 8b 85 80 03 00 00 	mov    rax,QWORD PTR [rbp+0x380]
   2fc4c49ff:	48 05 04 00 00 00    	add    rax,0x4
   2fc4c4a05:	48 89 85 88 03 00 00 	mov    QWORD PTR [rbp+0x388],rax
   2fc4c4a0c:	c7 45 00 5b fd 1c ff 	mov    DWORD PTR [rbp+0x0],0xff1cfd5b
   2fc4c4a13:	e9 65 22 00 00       	jmp    2fc4c6c7d <DllRegisterServer+0x56dd>
   2fc4c4a18:	48 8b 85 88 03 00 00 	mov    rax,QWORD PTR [rbp+0x388]
   2fc4c4a1f:	8b 08                	mov    ecx,DWORD PTR [rax]
   2fc4c4a21:	89 8d 94 03 00 00    	mov    DWORD PTR [rbp+0x394],ecx
   2fc4c4a27:	c7 45 00 ea cd d7 d3 	mov    DWORD PTR [rbp+0x0],0xd3d7cdea
   2fc4c4a2e:	e9 4a 22 00 00       	jmp    2fc4c6c7d <DllRegisterServer+0x56dd>
   2fc4c4a33:	8b 85 94 03 00 00    	mov    eax,DWORD PTR [rbp+0x394]
   2fc4c4a39:	89 c0                	mov    eax,eax
   2fc4c4a3b:	89 c1                	mov    ecx,eax
   2fc4c4a3d:	48 89 8d 98 03 00 00 	mov    QWORD PTR [rbp+0x398],rcx
   2fc4c4a44:	c7 45 00 92 7b 81 57 	mov    DWORD PTR [rbp+0x0],0x57817b92
   2fc4c4a4b:	e9 2d 22 00 00       	jmp    2fc4c6c7d <DllRegisterServer+0x56dd>
   2fc4c4a50:	48 8b 85 98 03 00 00 	mov    rax,QWORD PTR [rbp+0x398]
   2fc4c4a57:	48 83 f8 08          	cmp    rax,0x8
   2fc4c4a5b:	0f 93 c1             	setae  cl
   2fc4c4a5e:	80 e1 01             	and    cl,0x1
   2fc4c4a61:	88 8d a7 03 00 00    	mov    BYTE PTR [rbp+0x3a7],cl
   2fc4c4a67:	c7 45 00 3f 0f a9 37 	mov    DWORD PTR [rbp+0x0],0x37a90f3f
   2fc4c4a6e:	e9 0a 22 00 00       	jmp    2fc4c6c7d <DllRegisterServer+0x56dd>
   2fc4c4a73:	8a 85 a7 03 00 00    	mov    al,BYTE PTR [rbp+0x3a7]
   2fc4c4a79:	a8 01                	test   al,0x1
   2fc4c4a7b:	b9 8f 43 75 37       	mov    ecx,0x3775438f
   2fc4c4a80:	ba 04 a6 f3 93       	mov    edx,0x93f3a604
   2fc4c4a85:	0f 45 d1             	cmovne edx,ecx
   2fc4c4a88:	89 55 00             	mov    DWORD PTR [rbp+0x0],edx
   2fc4c4a8b:	e9 ed 21 00 00       	jmp    2fc4c6c7d <DllRegisterServer+0x56dd>
   2fc4c4a90:	48 8b 85 a0 00 00 00 	mov    rax,QWORD PTR [rbp+0xa0]
   2fc4c4a97:	48 8b 00             	mov    rax,QWORD PTR [rax]
   2fc4c4a9a:	48 89 85 a8 03 00 00 	mov    QWORD PTR [rbp+0x3a8],rax
   2fc4c4aa1:	c7 45 00 ab 7e c4 05 	mov    DWORD PTR [rbp+0x0],0x5c47eab
   2fc4c4aa8:	e9 d0 21 00 00       	jmp    2fc4c6c7d <DllRegisterServer+0x56dd>
   2fc4c4aad:	48 8b 85 a8 03 00 00 	mov    rax,QWORD PTR [rbp+0x3a8]
   2fc4c4ab4:	8b 48 04             	mov    ecx,DWORD PTR [rax+0x4]
   2fc4c4ab7:	89 8d b4 03 00 00    	mov    DWORD PTR [rbp+0x3b4],ecx
   2fc4c4abd:	c7 45 00 c4 a1 63 07 	mov    DWORD PTR [rbp+0x0],0x763a1c4
   2fc4c4ac4:	e9 b4 21 00 00       	jmp    2fc4c6c7d <DllRegisterServer+0x56dd>
   2fc4c4ac9:	8b 85 b4 03 00 00    	mov    eax,DWORD PTR [rbp+0x3b4]
   2fc4c4acf:	89 c0                	mov    eax,eax
   2fc4c4ad1:	89 c1                	mov    ecx,eax
   2fc4c4ad3:	48 89 8d b8 03 00 00 	mov    QWORD PTR [rbp+0x3b8],rcx
   2fc4c4ada:	c7 45 00 5a 4b 69 50 	mov    DWORD PTR [rbp+0x0],0x50694b5a
   2fc4c4ae1:	e9 97 21 00 00       	jmp    2fc4c6c7d <DllRegisterServer+0x56dd>
   2fc4c4ae6:	31 c0                	xor    eax,eax
   2fc4c4ae8:	89 c1                	mov    ecx,eax
   2fc4c4aea:	48 8b 95 b8 03 00 00 	mov    rdx,QWORD PTR [rbp+0x3b8]
   2fc4c4af1:	49 b8 4b 07 27 b4 ae 	movabs r8,0xf1a7f0aeb427074b
   2fc4c4af8:	f0 a7 f1 
   2fc4c4afb:	49 89 c9             	mov    r9,rcx
   2fc4c4afe:	4d 29 c1             	sub    r9,r8
   2fc4c4b01:	49 81 c1 00 00 00 00 	add    r9,0x0
   2fc4c4b08:	49 ba cc f6 8e a9 2f 	movabs r10,0xf1baf62fa98ef6cc
   2fc4c4b0f:	f6 ba f1 
   2fc4c4b12:	4c 29 d2             	sub    rdx,r10
   2fc4c4b15:	4c 01 ca             	add    rdx,r9
   2fc4c4b18:	4c 01 d2             	add    rdx,r10
   2fc4c4b1b:	49 b9 b8 79 bd be 36 	movabs r9,0x56271936bebd79b8
   2fc4c4b22:	19 27 56 
   2fc4c4b25:	49 89 ca             	mov    r10,rcx
   2fc4c4b28:	4d 29 ca             	sub    r10,r9
   2fc4c4b2b:	4c 01 d2             	add    rdx,r10
   2fc4c4b2e:	49 89 ca             	mov    r10,rcx
   2fc4c4b31:	49 81 ea 08 00 00 00 	sub    r10,0x8
   2fc4c4b38:	4c 01 d2             	add    rdx,r10
   2fc4c4b3b:	49 ba 25 3d 23 24 e9 	movabs r10,0x425e48e924233d25
   2fc4c4b42:	48 5e 42 
   2fc4c4b45:	4c 29 d2             	sub    rdx,r10
   2fc4c4b48:	4c 01 ca             	add    rdx,r9
   2fc4c4b4b:	4c 01 d2             	add    rdx,r10
   2fc4c4b4e:	49 b9 9d f1 5f 1a 00 	movabs r9,0x28733d001a5ff19d
   2fc4c4b55:	3d 73 28 
   2fc4c4b58:	4d 89 ca             	mov    r10,r9
   2fc4c4b5b:	49 81 c2 00 00 00 00 	add    r10,0x0
   2fc4c4b62:	49 29 d2             	sub    r10,rdx
   2fc4c4b65:	4d 29 ca             	sub    r10,r9
   2fc4c4b68:	48 ba 08 e8 b4 70 77 	movabs rdx,0x4d97b27770b4e808
   2fc4c4b6f:	b2 97 4d 
   2fc4c4b72:	49 89 c9             	mov    r9,rcx
   2fc4c4b75:	49 29 d1             	sub    r9,rdx
   2fc4c4b78:	4d 29 c1             	sub    r9,r8
   2fc4c4b7b:	49 01 d1             	add    r9,rdx
   2fc4c4b7e:	48 ba b4 8c f3 c8 8c 	movabs rdx,0x8db6d38cc8f38cb4
   2fc4c4b85:	d3 b6 8d 
   2fc4c4b88:	49 29 d2             	sub    r10,rdx
   2fc4c4b8b:	4d 01 ca             	add    r10,r9
   2fc4c4b8e:	49 01 d2             	add    r10,rdx
   2fc4c4b91:	48 ba 4e 9a d3 f1 eb 	movabs rdx,0x3b2d12ebf1d39a4e
   2fc4c4b98:	12 2d 3b 
   2fc4c4b9b:	48 29 d1             	sub    rcx,rdx
   2fc4c4b9e:	4c 29 d1             	sub    rcx,r10
   2fc4c4ba1:	48 01 d1             	add    rcx,rdx
   2fc4c4ba4:	48 89 8d c0 03 00 00 	mov    QWORD PTR [rbp+0x3c0],rcx
   2fc4c4bab:	c7 45 00 21 76 e6 f2 	mov    DWORD PTR [rbp+0x0],0xf2e67621
   2fc4c4bb2:	e9 c6 20 00 00       	jmp    2fc4c6c7d <DllRegisterServer+0x56dd>
   2fc4c4bb7:	48 8b 85 c0 03 00 00 	mov    rax,QWORD PTR [rbp+0x3c0]
   2fc4c4bbe:	48 c1 e8 01          	shr    rax,0x1
   2fc4c4bc2:	48 89 85 c8 03 00 00 	mov    QWORD PTR [rbp+0x3c8],rax
   2fc4c4bc9:	c7 45 00 80 e8 a3 55 	mov    DWORD PTR [rbp+0x0],0x55a3e880
   2fc4c4bd0:	e9 a8 20 00 00       	jmp    2fc4c6c7d <DllRegisterServer+0x56dd>
   2fc4c4bd5:	48 8b 85 c8 03 00 00 	mov    rax,QWORD PTR [rbp+0x3c8]
   2fc4c4bdc:	89 85 d4 03 00 00    	mov    DWORD PTR [rbp+0x3d4],eax
   2fc4c4be2:	c7 45 00 32 e3 c2 90 	mov    DWORD PTR [rbp+0x0],0x90c2e332
   2fc4c4be9:	e9 8f 20 00 00       	jmp    2fc4c6c7d <DllRegisterServer+0x56dd>
   2fc4c4bee:	48 8b 85 b0 00 00 00 	mov    rax,QWORD PTR [rbp+0xb0]
   2fc4c4bf5:	8b 8d d4 03 00 00    	mov    ecx,DWORD PTR [rbp+0x3d4]
   2fc4c4bfb:	89 08                	mov    DWORD PTR [rax],ecx
   2fc4c4bfd:	c7 45 00 fd 09 03 d5 	mov    DWORD PTR [rbp+0x0],0xd50309fd
   2fc4c4c04:	e9 74 20 00 00       	jmp    2fc4c6c7d <DllRegisterServer+0x56dd>
   2fc4c4c09:	48 8b 85 a0 00 00 00 	mov    rax,QWORD PTR [rbp+0xa0]
   2fc4c4c10:	48 8b 00             	mov    rax,QWORD PTR [rax]
   2fc4c4c13:	48 89 85 d8 03 00 00 	mov    QWORD PTR [rbp+0x3d8],rax
   2fc4c4c1a:	c7 45 00 96 81 48 39 	mov    DWORD PTR [rbp+0x0],0x39488196
   2fc4c4c21:	e9 57 20 00 00       	jmp    2fc4c6c7d <DllRegisterServer+0x56dd>
   2fc4c4c26:	48 8b 85 d8 03 00 00 	mov    rax,QWORD PTR [rbp+0x3d8]
   2fc4c4c2d:	48 05 08 00 00 00    	add    rax,0x8
   2fc4c4c33:	48 89 85 e0 03 00 00 	mov    QWORD PTR [rbp+0x3e0],rax
   2fc4c4c3a:	c7 45 00 22 b4 2d b6 	mov    DWORD PTR [rbp+0x0],0xb62db422
   2fc4c4c41:	e9 37 20 00 00       	jmp    2fc4c6c7d <DllRegisterServer+0x56dd>
   2fc4c4c46:	48 8b 85 b8 00 00 00 	mov    rax,QWORD PTR [rbp+0xb8]
   2fc4c4c4d:	48 8b 8d e0 03 00 00 	mov    rcx,QWORD PTR [rbp+0x3e0]
   2fc4c4c54:	48 89 08             	mov    QWORD PTR [rax],rcx
   2fc4c4c57:	c7 45 00 06 fd 01 1b 	mov    DWORD PTR [rbp+0x0],0x1b01fd06
   2fc4c4c5e:	e9 1a 20 00 00       	jmp    2fc4c6c7d <DllRegisterServer+0x56dd>
   2fc4c4c63:	48 8b 85 c0 00 00 00 	mov    rax,QWORD PTR [rbp+0xc0]
   2fc4c4c6a:	c7 00 00 00 00 00    	mov    DWORD PTR [rax],0x0
   2fc4c4c70:	c7 45 00 f0 65 16 63 	mov    DWORD PTR [rbp+0x0],0x631665f0
   2fc4c4c77:	e9 01 20 00 00       	jmp    2fc4c6c7d <DllRegisterServer+0x56dd>
   2fc4c4c7c:	48 8b 85 c0 00 00 00 	mov    rax,QWORD PTR [rbp+0xc0]
   2fc4c4c83:	8b 08                	mov    ecx,DWORD PTR [rax]
   2fc4c4c85:	89 8d ec 03 00 00    	mov    DWORD PTR [rbp+0x3ec],ecx
   2fc4c4c8b:	c7 45 00 01 26 d5 43 	mov    DWORD PTR [rbp+0x0],0x43d52601
   2fc4c4c92:	e9 e6 1f 00 00       	jmp    2fc4c6c7d <DllRegisterServer+0x56dd>
   2fc4c4c97:	48 8b 85 b0 00 00 00 	mov    rax,QWORD PTR [rbp+0xb0]
   2fc4c4c9e:	8b 08                	mov    ecx,DWORD PTR [rax]
   2fc4c4ca0:	89 8d f0 03 00 00    	mov    DWORD PTR [rbp+0x3f0],ecx
   2fc4c4ca6:	c7 45 00 ae 3d f9 7b 	mov    DWORD PTR [rbp+0x0],0x7bf93dae
   2fc4c4cad:	e9 cb 1f 00 00       	jmp    2fc4c6c7d <DllRegisterServer+0x56dd>
   2fc4c4cb2:	8b 85 ec 03 00 00    	mov    eax,DWORD PTR [rbp+0x3ec]
   2fc4c4cb8:	8b 8d f0 03 00 00    	mov    ecx,DWORD PTR [rbp+0x3f0]
   2fc4c4cbe:	39 c8                	cmp    eax,ecx
   2fc4c4cc0:	0f 92 c2             	setb   dl
   2fc4c4cc3:	80 e2 01             	and    dl,0x1
   2fc4c4cc6:	88 95 f7 03 00 00    	mov    BYTE PTR [rbp+0x3f7],dl
   2fc4c4ccc:	c7 45 00 15 15 7d 3b 	mov    DWORD PTR [rbp+0x0],0x3b7d1515
   2fc4c4cd3:	e9 a5 1f 00 00       	jmp    2fc4c6c7d <DllRegisterServer+0x56dd>
   2fc4c4cd8:	8a 85 f7 03 00 00    	mov    al,BYTE PTR [rbp+0x3f7]
   2fc4c4cde:	a8 01                	test   al,0x1
   2fc4c4ce0:	b9 14 6e f8 c0       	mov    ecx,0xc0f86e14
   2fc4c4ce5:	ba 10 1f 73 90       	mov    edx,0x90731f10
   2fc4c4cea:	0f 45 d1             	cmovne edx,ecx
   2fc4c4ced:	89 55 00             	mov    DWORD PTR [rbp+0x0],edx
   2fc4c4cf0:	e9 88 1f 00 00       	jmp    2fc4c6c7d <DllRegisterServer+0x56dd>
   2fc4c4cf5:	48 8b 85 b8 00 00 00 	mov    rax,QWORD PTR [rbp+0xb8]
   2fc4c4cfc:	48 8b 00             	mov    rax,QWORD PTR [rax]
   2fc4c4cff:	48 89 85 f8 03 00 00 	mov    QWORD PTR [rbp+0x3f8],rax
   2fc4c4d06:	c7 45 00 5e cd 1c e5 	mov    DWORD PTR [rbp+0x0],0xe51ccd5e
   2fc4c4d0d:	e9 6b 1f 00 00       	jmp    2fc4c6c7d <DllRegisterServer+0x56dd>
   2fc4c4d12:	48 8b 85 c0 00 00 00 	mov    rax,QWORD PTR [rbp+0xc0]
   2fc4c4d19:	8b 08                	mov    ecx,DWORD PTR [rax]
   2fc4c4d1b:	89 c8                	mov    eax,ecx
   2fc4c4d1d:	48 8b 95 f8 03 00 00 	mov    rdx,QWORD PTR [rbp+0x3f8]
   2fc4c4d24:	66 44 8b 04 42       	mov    r8w,WORD PTR [rdx+rax*2]
   2fc4c4d29:	66 44 89 85 06 04 00 	mov    WORD PTR [rbp+0x406],r8w
   2fc4c4d30:	00 
   2fc4c4d31:	c7 45 00 1a 97 39 6b 	mov    DWORD PTR [rbp+0x0],0x6b39971a
   2fc4c4d38:	e9 40 1f 00 00       	jmp    2fc4c6c7d <DllRegisterServer+0x56dd>
   2fc4c4d3d:	66 8b 85 06 04 00 00 	mov    ax,WORD PTR [rbp+0x406]
   2fc4c4d44:	0f b7 c8             	movzx  ecx,ax
   2fc4c4d47:	89 8d 08 04 00 00    	mov    DWORD PTR [rbp+0x408],ecx
   2fc4c4d4d:	c7 45 00 a1 dc 0a 80 	mov    DWORD PTR [rbp+0x0],0x800adca1
   2fc4c4d54:	e9 24 1f 00 00       	jmp    2fc4c6c7d <DllRegisterServer+0x56dd>
   2fc4c4d59:	8b 85 08 04 00 00    	mov    eax,DWORD PTR [rbp+0x408]
   2fc4c4d5f:	c1 f8 0c             	sar    eax,0xc
   2fc4c4d62:	89 85 0c 04 00 00    	mov    DWORD PTR [rbp+0x40c],eax
   2fc4c4d68:	c7 45 00 cb 95 56 29 	mov    DWORD PTR [rbp+0x0],0x295695cb
   2fc4c4d6f:	e9 09 1f 00 00       	jmp    2fc4c6c7d <DllRegisterServer+0x56dd>
   2fc4c4d74:	48 8b 85 c8 00 00 00 	mov    rax,QWORD PTR [rbp+0xc8]
   2fc4c4d7b:	8b 8d 0c 04 00 00    	mov    ecx,DWORD PTR [rbp+0x40c]
   2fc4c4d81:	89 08                	mov    DWORD PTR [rax],ecx
   2fc4c4d83:	48 8b 85 b8 00 00 00 	mov    rax,QWORD PTR [rbp+0xb8]
   2fc4c4d8a:	48 8b 00             	mov    rax,QWORD PTR [rax]
   2fc4c4d8d:	48 89 85 10 04 00 00 	mov    QWORD PTR [rbp+0x410],rax
   2fc4c4d94:	c7 45 00 75 19 7b d6 	mov    DWORD PTR [rbp+0x0],0xd67b1975
   2fc4c4d9b:	e9 dd 1e 00 00       	jmp    2fc4c6c7d <DllRegisterServer+0x56dd>
   2fc4c4da0:	48 8b 85 c0 00 00 00 	mov    rax,QWORD PTR [rbp+0xc0]
   2fc4c4da7:	8b 08                	mov    ecx,DWORD PTR [rax]
   2fc4c4da9:	89 c8                	mov    eax,ecx
   2fc4c4dab:	48 89 85 18 04 00 00 	mov    QWORD PTR [rbp+0x418],rax
   2fc4c4db2:	c7 45 00 c0 30 93 02 	mov    DWORD PTR [rbp+0x0],0x29330c0
   2fc4c4db9:	e9 bf 1e 00 00       	jmp    2fc4c6c7d <DllRegisterServer+0x56dd>
   2fc4c4dbe:	48 8b 85 10 04 00 00 	mov    rax,QWORD PTR [rbp+0x410]
   2fc4c4dc5:	48 8b 8d 18 04 00 00 	mov    rcx,QWORD PTR [rbp+0x418]
   2fc4c4dcc:	66 8b 14 48          	mov    dx,WORD PTR [rax+rcx*2]
   2fc4c4dd0:	66 89 95 22 04 00 00 	mov    WORD PTR [rbp+0x422],dx
   2fc4c4dd7:	c7 45 00 0f 70 2a 60 	mov    DWORD PTR [rbp+0x0],0x602a700f
   2fc4c4dde:	e9 9a 1e 00 00       	jmp    2fc4c6c7d <DllRegisterServer+0x56dd>
   2fc4c4de3:	66 8b 85 22 04 00 00 	mov    ax,WORD PTR [rbp+0x422]
   2fc4c4dea:	0f b7 c8             	movzx  ecx,ax
   2fc4c4ded:	89 8d 24 04 00 00    	mov    DWORD PTR [rbp+0x424],ecx
   2fc4c4df3:	c7 45 00 a0 9a c5 6c 	mov    DWORD PTR [rbp+0x0],0x6cc59aa0
   2fc4c4dfa:	e9 7e 1e 00 00       	jmp    2fc4c6c7d <DllRegisterServer+0x56dd>
   2fc4c4dff:	8b 85 24 04 00 00    	mov    eax,DWORD PTR [rbp+0x424]
   2fc4c4e05:	b9 ff ff ff ff       	mov    ecx,0xffffffff
   2fc4c4e0a:	89 ca                	mov    edx,ecx
   2fc4c4e0c:	81 f2 ff 0f 00 00    	xor    edx,0xfff
   2fc4c4e12:	81 e2 ff ff ff ff    	and    edx,0xffffffff
   2fc4c4e18:	41 89 c8             	mov    r8d,ecx
   2fc4c4e1b:	41 81 f0 ff ff ff ff 	xor    r8d,0xffffffff
   2fc4c4e22:	41 81 e0 ff 0f 00 00 	and    r8d,0xfff
   2fc4c4e29:	44 09 c2             	or     edx,r8d
   2fc4c4e2c:	83 f2 ff             	xor    edx,0xffffffff
   2fc4c4e2f:	81 f2 ff ff ff ff    	xor    edx,0xffffffff
   2fc4c4e35:	83 e2 ff             	and    edx,0xffffffff
   2fc4c4e38:	41 89 c8             	mov    r8d,ecx
   2fc4c4e3b:	41 81 f0 ff ff ff ff 	xor    r8d,0xffffffff
   2fc4c4e42:	41 81 e0 5a c3 f5 cd 	and    r8d,0xcdf5c35a
   2fc4c4e49:	41 89 c9             	mov    r9d,ecx
   2fc4c4e4c:	41 81 f1 5a c3 f5 cd 	xor    r9d,0xcdf5c35a
   2fc4c4e53:	45 89 ca             	mov    r10d,r9d
   2fc4c4e56:	41 81 e2 ff ff ff ff 	and    r10d,0xffffffff
   2fc4c4e5d:	41 89 cb             	mov    r11d,ecx
   2fc4c4e60:	41 81 f3 ff ff ff ff 	xor    r11d,0xffffffff
   2fc4c4e67:	41 81 e3 5a c3 f5 cd 	and    r11d,0xcdf5c35a
   2fc4c4e6e:	41 81 e1 ff ff ff ff 	and    r9d,0xffffffff
   2fc4c4e75:	45 09 d0             	or     r8d,r10d
   2fc4c4e78:	45 09 cb             	or     r11d,r9d
   2fc4c4e7b:	45 31 d8             	xor    r8d,r11d
   2fc4c4e7e:	41 89 c9             	mov    r9d,ecx
   2fc4c4e81:	41 81 f1 ff 0f 00 00 	xor    r9d,0xfff
   2fc4c4e88:	41 83 f0 ff          	xor    r8d,0xffffffff
   2fc4c4e8c:	41 89 ca             	mov    r10d,ecx
   2fc4c4e8f:	41 81 f2 5d 2c 26 39 	xor    r10d,0x39262c5d
   2fc4c4e96:	45 09 c1             	or     r9d,r8d
   2fc4c4e99:	41 81 ca 5d 2c 26 39 	or     r10d,0x39262c5d
   2fc4c4ea0:	41 83 f1 ff          	xor    r9d,0xffffffff
   2fc4c4ea4:	45 21 d1             	and    r9d,r10d
   2fc4c4ea7:	41 89 d0             	mov    r8d,edx
   2fc4c4eaa:	41 83 f0 ff          	xor    r8d,0xffffffff
   2fc4c4eae:	45 89 ca             	mov    r10d,r9d
   2fc4c4eb1:	41 83 f2 ff          	xor    r10d,0xffffffff
   2fc4c4eb5:	41 89 cb             	mov    r11d,ecx
   2fc4c4eb8:	41 81 f3 10 cd 25 96 	xor    r11d,0x9625cd10
   2fc4c4ebf:	44 89 c6             	mov    esi,r8d
   2fc4c4ec2:	81 e6 10 cd 25 96    	and    esi,0x9625cd10
   2fc4c4ec8:	44 21 da             	and    edx,r11d
   2fc4c4ecb:	44 89 d7             	mov    edi,r10d
   2fc4c4ece:	81 e7 10 cd 25 96    	and    edi,0x9625cd10
   2fc4c4ed4:	45 21 d9             	and    r9d,r11d
   2fc4c4ed7:	09 d6                	or     esi,edx
   2fc4c4ed9:	44 09 cf             	or     edi,r9d
   2fc4c4edc:	31 fe                	xor    esi,edi
   2fc4c4ede:	45 09 d0             	or     r8d,r10d
   2fc4c4ee1:	41 83 f0 ff          	xor    r8d,0xffffffff
   2fc4c4ee5:	41 81 cb 10 cd 25 96 	or     r11d,0x9625cd10
   2fc4c4eec:	45 21 d8             	and    r8d,r11d
   2fc4c4eef:	44 09 c6             	or     esi,r8d
   2fc4c4ef2:	89 c2                	mov    edx,eax
   2fc4c4ef4:	83 f2 ff             	xor    edx,0xffffffff
   2fc4c4ef7:	81 e2 ff ff ff ff    	and    edx,0xffffffff
   2fc4c4efd:	41 89 c8             	mov    r8d,ecx
   2fc4c4f00:	41 81 f0 ff ff ff ff 	xor    r8d,0xffffffff
   2fc4c4f07:	41 89 c1             	mov    r9d,eax
   2fc4c4f0a:	45 21 c1             	and    r9d,r8d
   2fc4c4f0d:	44 09 ca             	or     edx,r9d
   2fc4c4f10:	41 89 f0             	mov    r8d,esi
   2fc4c4f13:	41 83 f0 ff          	xor    r8d,0xffffffff
   2fc4c4f17:	83 f2 ff             	xor    edx,0xffffffff
   2fc4c4f1a:	41 89 c9             	mov    r9d,ecx
   2fc4c4f1d:	41 81 f1 c6 c4 dd e1 	xor    r9d,0xe1ddc4c6
   2fc4c4f24:	41 09 d0             	or     r8d,edx
   2fc4c4f27:	41 81 c9 c6 c4 dd e1 	or     r9d,0xe1ddc4c6
   2fc4c4f2e:	41 83 f0 ff          	xor    r8d,0xffffffff
   2fc4c4f32:	45 21 c8             	and    r8d,r9d
   2fc4c4f35:	89 f2                	mov    edx,esi
   2fc4c4f37:	83 f2 ff             	xor    edx,0xffffffff
   2fc4c4f3a:	81 e2 ff ff ff ff    	and    edx,0xffffffff
   2fc4c4f40:	41 89 c9             	mov    r9d,ecx
   2fc4c4f43:	41 81 f1 ff ff ff ff 	xor    r9d,0xffffffff
   2fc4c4f4a:	44 21 ce             	and    esi,r9d
   2fc4c4f4d:	09 f2                	or     edx,esi
   2fc4c4f4f:	83 f2 ff             	xor    edx,0xffffffff
   2fc4c4f52:	41 89 c1             	mov    r9d,eax
   2fc4c4f55:	41 31 d1             	xor    r9d,edx
   2fc4c4f58:	41 21 c1             	and    r9d,eax
   2fc4c4f5b:	44 89 c2             	mov    edx,r8d
   2fc4c4f5e:	83 f2 ff             	xor    edx,0xffffffff
   2fc4c4f61:	45 89 ca             	mov    r10d,r9d
   2fc4c4f64:	41 83 f2 ff          	xor    r10d,0xffffffff
   2fc4c4f68:	41 89 cb             	mov    r11d,ecx
   2fc4c4f6b:	41 81 f3 01 0c a7 23 	xor    r11d,0x23a70c01
   2fc4c4f72:	89 d6                	mov    esi,edx
   2fc4c4f74:	81 e6 01 0c a7 23    	and    esi,0x23a70c01
   2fc4c4f7a:	45 21 d8             	and    r8d,r11d
   2fc4c4f7d:	44 89 d7             	mov    edi,r10d
   2fc4c4f80:	81 e7 01 0c a7 23    	and    edi,0x23a70c01
   2fc4c4f86:	45 21 d9             	and    r9d,r11d
   2fc4c4f89:	44 09 c6             	or     esi,r8d
   2fc4c4f8c:	44 09 cf             	or     edi,r9d
   2fc4c4f8f:	31 fe                	xor    esi,edi
   2fc4c4f91:	44 09 d2             	or     edx,r10d
   2fc4c4f94:	83 f2 ff             	xor    edx,0xffffffff
   2fc4c4f97:	41 81 cb 01 0c a7 23 	or     r11d,0x23a70c01
   2fc4c4f9e:	44 21 da             	and    edx,r11d
   2fc4c4fa1:	09 d6                	or     esi,edx
   2fc4c4fa3:	89 f2                	mov    edx,esi
   2fc4c4fa5:	83 f2 ff             	xor    edx,0xffffffff
   2fc4c4fa8:	81 e2 ff ff ff ff    	and    edx,0xffffffff
   2fc4c4fae:	41 89 c8             	mov    r8d,ecx
   2fc4c4fb1:	41 81 f0 ff ff ff ff 	xor    r8d,0xffffffff
   2fc4c4fb8:	44 21 c6             	and    esi,r8d
   2fc4c4fbb:	09 f2                	or     edx,esi
   2fc4c4fbd:	41 89 c0             	mov    r8d,eax
   2fc4c4fc0:	41 83 f0 ff          	xor    r8d,0xffffffff
   2fc4c4fc4:	41 81 e0 ff ff ff ff 	and    r8d,0xffffffff
   2fc4c4fcb:	41 89 c9             	mov    r9d,ecx
   2fc4c4fce:	41 81 f1 ff ff ff ff 	xor    r9d,0xffffffff
   2fc4c4fd5:	44 21 c8             	and    eax,r9d
   2fc4c4fd8:	41 09 c0             	or     r8d,eax
   2fc4c4fdb:	89 c8                	mov    eax,ecx
   2fc4c4fdd:	35 0b ef cc a0       	xor    eax,0xa0ccef0b
   2fc4c4fe2:	25 ef 54 39 06       	and    eax,0x63954ef
   2fc4c4fe7:	41 89 c9             	mov    r9d,ecx
   2fc4c4fea:	41 81 f1 ef 54 39 06 	xor    r9d,0x63954ef
   2fc4c4ff1:	45 89 ca             	mov    r10d,r9d
   2fc4c4ff4:	41 81 e2 0b ef cc a0 	and    r10d,0xa0ccef0b
   2fc4c4ffb:	41 89 cb             	mov    r11d,ecx
   2fc4c4ffe:	41 81 f3 ff ff ff ff 	xor    r11d,0xffffffff
   2fc4c5005:	41 81 e3 ef 54 39 06 	and    r11d,0x63954ef
   2fc4c500c:	41 81 e1 ff ff ff ff 	and    r9d,0xffffffff
   2fc4c5013:	44 09 d0             	or     eax,r10d
   2fc4c5016:	45 09 cb             	or     r11d,r9d
   2fc4c5019:	44 31 d8             	xor    eax,r11d
   2fc4c501c:	41 89 d1             	mov    r9d,edx
   2fc4c501f:	45 21 c1             	and    r9d,r8d
   2fc4c5022:	44 31 c2             	xor    edx,r8d
   2fc4c5025:	41 09 d1             	or     r9d,edx
   2fc4c5028:	89 c2                	mov    edx,eax
   2fc4c502a:	81 e2 0b ef cc a0    	and    edx,0xa0ccef0b
   2fc4c5030:	35 0b ef cc a0       	xor    eax,0xa0ccef0b
   2fc4c5035:	09 c2                	or     edx,eax
   2fc4c5037:	44 89 c8             	mov    eax,r9d
   2fc4c503a:	83 f0 ff             	xor    eax,0xffffffff
   2fc4c503d:	25 65 47 6d fd       	and    eax,0xfd6d4765
   2fc4c5042:	41 89 c8             	mov    r8d,ecx
   2fc4c5045:	41 81 f0 65 47 6d fd 	xor    r8d,0xfd6d4765
   2fc4c504c:	45 21 c1             	and    r9d,r8d
   2fc4c504f:	81 f1 ff ff ff ff    	xor    ecx,0xffffffff
   2fc4c5055:	81 e1 65 47 6d fd    	and    ecx,0xfd6d4765
   2fc4c505b:	41 81 e0 ff ff ff ff 	and    r8d,0xffffffff
   2fc4c5062:	44 09 c8             	or     eax,r9d
   2fc4c5065:	44 09 c1             	or     ecx,r8d
   2fc4c5068:	31 c8                	xor    eax,ecx
   2fc4c506a:	83 f2 ff             	xor    edx,0xffffffff
   2fc4c506d:	89 c1                	mov    ecx,eax
   2fc4c506f:	31 d1                	xor    ecx,edx
   2fc4c5071:	21 c1                	and    ecx,eax
   2fc4c5073:	89 8d 28 04 00 00    	mov    DWORD PTR [rbp+0x428],ecx
   2fc4c5079:	c7 45 00 09 1f a1 8a 	mov    DWORD PTR [rbp+0x0],0x8aa11f09
   2fc4c5080:	e9 f8 1b 00 00       	jmp    2fc4c6c7d <DllRegisterServer+0x56dd>
   2fc4c5085:	48 8b 85 d0 00 00 00 	mov    rax,QWORD PTR [rbp+0xd0]
   2fc4c508c:	8b 8d 28 04 00 00    	mov    ecx,DWORD PTR [rbp+0x428]
   2fc4c5092:	89 08                	mov    DWORD PTR [rax],ecx
   2fc4c5094:	c7 45 00 56 f2 09 3e 	mov    DWORD PTR [rbp+0x0],0x3e09f256
   2fc4c509b:	e9 dd 1b 00 00       	jmp    2fc4c6c7d <DllRegisterServer+0x56dd>
   2fc4c50a0:	48 8b 85 c8 00 00 00 	mov    rax,QWORD PTR [rbp+0xc8]
   2fc4c50a7:	8b 08                	mov    ecx,DWORD PTR [rax]
   2fc4c50a9:	89 8d 2c 04 00 00    	mov    DWORD PTR [rbp+0x42c],ecx
   2fc4c50af:	c7 45 00 2f 56 62 5d 	mov    DWORD PTR [rbp+0x0],0x5d62562f
   2fc4c50b6:	e9 c2 1b 00 00       	jmp    2fc4c6c7d <DllRegisterServer+0x56dd>
   2fc4c50bb:	8b 85 2c 04 00 00    	mov    eax,DWORD PTR [rbp+0x42c]
   2fc4c50c1:	83 f8 0a             	cmp    eax,0xa
   2fc4c50c4:	b8 d6 7c bc 36       	mov    eax,0x36bc7cd6
   2fc4c50c9:	b9 15 fa c9 41       	mov    ecx,0x41c9fa15
   2fc4c50ce:	0f 4c c8             	cmovl  ecx,eax
   2fc4c50d1:	89 4d 00             	mov    DWORD PTR [rbp+0x0],ecx
   2fc4c50d4:	e9 a4 1b 00 00       	jmp    2fc4c6c7d <DllRegisterServer+0x56dd>
   2fc4c50d9:	8b 85 2c 04 00 00    	mov    eax,DWORD PTR [rbp+0x42c]
   2fc4c50df:	83 f8 0a             	cmp    eax,0xa
   2fc4c50e2:	b8 ba 66 76 2f       	mov    eax,0x2f7666ba
   2fc4c50e7:	b9 dd de 93 d6       	mov    ecx,0xd693dedd
   2fc4c50ec:	0f 44 c8             	cmove  ecx,eax
   2fc4c50ef:	89 4d 00             	mov    DWORD PTR [rbp+0x0],ecx
   2fc4c50f2:	e9 86 1b 00 00       	jmp    2fc4c6c7d <DllRegisterServer+0x56dd>
   2fc4c50f7:	8b 85 2c 04 00 00    	mov    eax,DWORD PTR [rbp+0x42c]
   2fc4c50fd:	83 f8 03             	cmp    eax,0x3
   2fc4c5100:	b8 ea d6 ec 43       	mov    eax,0x43ecd6ea
   2fc4c5105:	b9 dd de 93 d6       	mov    ecx,0xd693dedd
   2fc4c510a:	0f 44 c8             	cmove  ecx,eax
   2fc4c510d:	89 4d 00             	mov    DWORD PTR [rbp+0x0],ecx
   2fc4c5110:	e9 68 1b 00 00       	jmp    2fc4c6c7d <DllRegisterServer+0x56dd>
   2fc4c5115:	48 8b 85 80 00 00 00 	mov    rax,QWORD PTR [rbp+0x80]
   2fc4c511c:	48 8b 00             	mov    rax,QWORD PTR [rax]
   2fc4c511f:	48 89 85 30 04 00 00 	mov    QWORD PTR [rbp+0x430],rax
   2fc4c5126:	c7 45 00 4b 99 d3 f0 	mov    DWORD PTR [rbp+0x0],0xf0d3994b
   2fc4c512d:	e9 4b 1b 00 00       	jmp    2fc4c6c7d <DllRegisterServer+0x56dd>
   2fc4c5132:	48 8b 85 30 04 00 00 	mov    rax,QWORD PTR [rbp+0x430]
   2fc4c5139:	48 89 85 38 04 00 00 	mov    QWORD PTR [rbp+0x438],rax
   2fc4c5140:	c7 45 00 3e a6 10 fc 	mov    DWORD PTR [rbp+0x0],0xfc10a63e
   2fc4c5147:	e9 31 1b 00 00       	jmp    2fc4c6c7d <DllRegisterServer+0x56dd>
   2fc4c514c:	48 8b 85 a0 00 00 00 	mov    rax,QWORD PTR [rbp+0xa0]
   2fc4c5153:	48 8b 00             	mov    rax,QWORD PTR [rax]
   2fc4c5156:	48 89 85 40 04 00 00 	mov    QWORD PTR [rbp+0x440],rax
   2fc4c515d:	c7 45 00 64 6e ab 4a 	mov    DWORD PTR [rbp+0x0],0x4aab6e64
   2fc4c5164:	e9 14 1b 00 00       	jmp    2fc4c6c7d <DllRegisterServer+0x56dd>
   2fc4c5169:	48 8b 85 40 04 00 00 	mov    rax,QWORD PTR [rbp+0x440]
   2fc4c5170:	48 89 85 48 04 00 00 	mov    QWORD PTR [rbp+0x448],rax
   2fc4c5177:	c7 45 00 c8 2a c8 62 	mov    DWORD PTR [rbp+0x0],0x62c82ac8
   2fc4c517e:	e9 fa 1a 00 00       	jmp    2fc4c6c7d <DllRegisterServer+0x56dd>
   2fc4c5183:	48 8b 85 48 04 00 00 	mov    rax,QWORD PTR [rbp+0x448]
   2fc4c518a:	8b 08                	mov    ecx,DWORD PTR [rax]
   2fc4c518c:	89 c8                	mov    eax,ecx
   2fc4c518e:	48 89 85 50 04 00 00 	mov    QWORD PTR [rbp+0x450],rax
   2fc4c5195:	c7 45 00 39 18 91 5b 	mov    DWORD PTR [rbp+0x0],0x5b911839
   2fc4c519c:	e9 dc 1a 00 00       	jmp    2fc4c6c7d <DllRegisterServer+0x56dd>
   2fc4c51a1:	48 8b 85 38 04 00 00 	mov    rax,QWORD PTR [rbp+0x438]
   2fc4c51a8:	48 8b 8d 50 04 00 00 	mov    rcx,QWORD PTR [rbp+0x450]
   2fc4c51af:	48 c1 e1 02          	shl    rcx,0x2
   2fc4c51b3:	48 01 c8             	add    rax,rcx
   2fc4c51b6:	48 8b 8d d0 00 00 00 	mov    rcx,QWORD PTR [rbp+0xd0]
   2fc4c51bd:	8b 11                	mov    edx,DWORD PTR [rcx]
   2fc4c51bf:	89 d1                	mov    ecx,edx
   2fc4c51c1:	48 c1 e1 02          	shl    rcx,0x2
   2fc4c51c5:	48 01 c8             	add    rax,rcx
   2fc4c51c8:	48 89 85 58 04 00 00 	mov    QWORD PTR [rbp+0x458],rax
   2fc4c51cf:	c7 45 00 1c 36 a2 cd 	mov    DWORD PTR [rbp+0x0],0xcda2361c
   2fc4c51d6:	e9 a2 1a 00 00       	jmp    2fc4c6c7d <DllRegisterServer+0x56dd>
   2fc4c51db:	48 8b 85 d8 00 00 00 	mov    rax,QWORD PTR [rbp+0xd8]
   2fc4c51e2:	48 8b 8d 58 04 00 00 	mov    rcx,QWORD PTR [rbp+0x458]
   2fc4c51e9:	48 89 08             	mov    QWORD PTR [rax],rcx
   2fc4c51ec:	48 8b 85 a8 00 00 00 	mov    rax,QWORD PTR [rbp+0xa8]
   2fc4c51f3:	48 8b 00             	mov    rax,QWORD PTR [rax]
   2fc4c51f6:	48 89 85 60 04 00 00 	mov    QWORD PTR [rbp+0x460],rax
   2fc4c51fd:	c7 45 00 0e e0 7b 14 	mov    DWORD PTR [rbp+0x0],0x147be00e
   2fc4c5204:	e9 74 1a 00 00       	jmp    2fc4c6c7d <DllRegisterServer+0x56dd>
   2fc4c5209:	48 8b 85 60 04 00 00 	mov    rax,QWORD PTR [rbp+0x460]
   2fc4c5210:	89 85 6c 04 00 00    	mov    DWORD PTR [rbp+0x46c],eax
   2fc4c5216:	c7 45 00 d3 e2 24 1a 	mov    DWORD PTR [rbp+0x0],0x1a24e2d3
   2fc4c521d:	e9 5b 1a 00 00       	jmp    2fc4c6c7d <DllRegisterServer+0x56dd>
   2fc4c5222:	48 8b 85 d8 00 00 00 	mov    rax,QWORD PTR [rbp+0xd8]
   2fc4c5229:	48 8b 00             	mov    rax,QWORD PTR [rax]
   2fc4c522c:	48 89 85 70 04 00 00 	mov    QWORD PTR [rbp+0x470],rax
   2fc4c5233:	48 8b 85 70 04 00 00 	mov    rax,QWORD PTR [rbp+0x470]
   2fc4c523a:	8b 08                	mov    ecx,DWORD PTR [rax]
   2fc4c523c:	89 8d 7c 04 00 00    	mov    DWORD PTR [rbp+0x47c],ecx
   2fc4c5242:	c7 45 00 5d 04 65 49 	mov    DWORD PTR [rbp+0x0],0x4965045d
   2fc4c5249:	e9 2f 1a 00 00       	jmp    2fc4c6c7d <DllRegisterServer+0x56dd>
   2fc4c524e:	31 c0                	xor    eax,eax
   2fc4c5250:	8b 8d 6c 04 00 00    	mov    ecx,DWORD PTR [rbp+0x46c]
   2fc4c5256:	8b 95 7c 04 00 00    	mov    edx,DWORD PTR [rbp+0x47c]
   2fc4c525c:	41 b8 8f 37 bb 04    	mov    r8d,0x4bb378f
   2fc4c5262:	41 83 c0 00          	add    r8d,0x0
   2fc4c5266:	41 81 e8 83 ec 09 27 	sub    r8d,0x2709ec83
   2fc4c526d:	41 81 e8 8f 37 bb 04 	sub    r8d,0x4bb378f
   2fc4c5274:	41 89 c1             	mov    r9d,eax
   2fc4c5277:	45 29 c1             	sub    r9d,r8d
   2fc4c527a:	44 01 ca             	add    edx,r9d
   2fc4c527d:	41 b8 5d f1 ee 24    	mov    r8d,0x24eef15d
   2fc4c5283:	41 83 c0 00          	add    r8d,0x0
   2fc4c5287:	41 29 d0             	sub    r8d,edx
   2fc4c528a:	41 81 e8 5d f1 ee 24 	sub    r8d,0x24eef15d
   2fc4c5291:	89 c2                	mov    edx,eax
   2fc4c5293:	81 ea 2b cc f9 ec    	sub    edx,0xecf9cc2b
   2fc4c5299:	29 ca                	sub    edx,ecx
   2fc4c529b:	81 c2 2b cc f9 ec    	add    edx,0xecf9cc2b
   2fc4c52a1:	41 81 e8 a9 9c 29 a1 	sub    r8d,0xa1299ca9
   2fc4c52a8:	41 01 d0             	add    r8d,edx
   2fc4c52ab:	41 81 c0 a9 9c 29 a1 	add    r8d,0xa1299ca9
   2fc4c52b2:	44 29 c0             	sub    eax,r8d
   2fc4c52b5:	83 c0 00             	add    eax,0x0
   2fc4c52b8:	b9 02 9d 17 8f       	mov    ecx,0x8f179d02
   2fc4c52bd:	83 c1 00             	add    ecx,0x0
   2fc4c52c0:	81 e9 83 ec 09 27    	sub    ecx,0x2709ec83
   2fc4c52c6:	81 e9 02 9d 17 8f    	sub    ecx,0x8f179d02
   2fc4c52cc:	2d bc df 09 35       	sub    eax,0x3509dfbc
   2fc4c52d1:	01 c8                	add    eax,ecx
   2fc4c52d3:	05 bc df 09 35       	add    eax,0x3509dfbc
   2fc4c52d8:	4c 8b 95 70 04 00 00 	mov    r10,QWORD PTR [rbp+0x470]
   2fc4c52df:	41 89 02             	mov    DWORD PTR [r10],eax
   2fc4c52e2:	c7 45 00 53 94 b7 1e 	mov    DWORD PTR [rbp+0x0],0x1eb79453
   2fc4c52e9:	e9 8f 19 00 00       	jmp    2fc4c6c7d <DllRegisterServer+0x56dd>
   2fc4c52ee:	c7 45 00 6d 44 4a fb 	mov    DWORD PTR [rbp+0x0],0xfb4a446d
   2fc4c52f5:	e9 83 19 00 00       	jmp    2fc4c6c7d <DllRegisterServer+0x56dd>
   2fc4c52fa:	48 8b 85 80 00 00 00 	mov    rax,QWORD PTR [rbp+0x80]
   2fc4c5301:	48 8b 00             	mov    rax,QWORD PTR [rax]
   2fc4c5304:	48 89 85 80 04 00 00 	mov    QWORD PTR [rbp+0x480],rax
   2fc4c530b:	c7 45 00 85 45 a4 67 	mov    DWORD PTR [rbp+0x0],0x67a44585
   2fc4c5312:	e9 66 19 00 00       	jmp    2fc4c6c7d <DllRegisterServer+0x56dd>
   2fc4c5317:	48 8b 85 80 04 00 00 	mov    rax,QWORD PTR [rbp+0x480]
   2fc4c531e:	48 89 85 88 04 00 00 	mov    QWORD PTR [rbp+0x488],rax
   2fc4c5325:	c7 45 00 2e 6e a4 55 	mov    DWORD PTR [rbp+0x0],0x55a46e2e
   2fc4c532c:	e9 4c 19 00 00       	jmp    2fc4c6c7d <DllRegisterServer+0x56dd>
   2fc4c5331:	48 8b 85 a0 00 00 00 	mov    rax,QWORD PTR [rbp+0xa0]
   2fc4c5338:	48 8b 00             	mov    rax,QWORD PTR [rax]
   2fc4c533b:	48 89 85 90 04 00 00 	mov    QWORD PTR [rbp+0x490],rax
   2fc4c5342:	c7 45 00 f0 c6 37 bf 	mov    DWORD PTR [rbp+0x0],0xbf37c6f0
   2fc4c5349:	e9 2f 19 00 00       	jmp    2fc4c6c7d <DllRegisterServer+0x56dd>
   2fc4c534e:	48 8b 85 90 04 00 00 	mov    rax,QWORD PTR [rbp+0x490]
   2fc4c5355:	48 89 85 98 04 00 00 	mov    QWORD PTR [rbp+0x498],rax
   2fc4c535c:	c7 45 00 dd db 45 a1 	mov    DWORD PTR [rbp+0x0],0xa145dbdd
   2fc4c5363:	e9 15 19 00 00       	jmp    2fc4c6c7d <DllRegisterServer+0x56dd>
   2fc4c5368:	48 8b 85 98 04 00 00 	mov    rax,QWORD PTR [rbp+0x498]
   2fc4c536f:	8b 08                	mov    ecx,DWORD PTR [rax]
   2fc4c5371:	89 8d a4 04 00 00    	mov    DWORD PTR [rbp+0x4a4],ecx
   2fc4c5377:	c7 45 00 7c 4d 1c 22 	mov    DWORD PTR [rbp+0x0],0x221c4d7c
   2fc4c537e:	e9 fa 18 00 00       	jmp    2fc4c6c7d <DllRegisterServer+0x56dd>
   2fc4c5383:	8b 85 a4 04 00 00    	mov    eax,DWORD PTR [rbp+0x4a4]
   2fc4c5389:	89 c0                	mov    eax,eax
   2fc4c538b:	89 c1                	mov    ecx,eax
   2fc4c538d:	48 89 8d a8 04 00 00 	mov    QWORD PTR [rbp+0x4a8],rcx
   2fc4c5394:	c7 45 00 a9 07 05 ad 	mov    DWORD PTR [rbp+0x0],0xad0507a9
   2fc4c539b:	e9 dd 18 00 00       	jmp    2fc4c6c7d <DllRegisterServer+0x56dd>
   2fc4c53a0:	31 c0                	xor    eax,eax
   2fc4c53a2:	89 c1                	mov    ecx,eax
   2fc4c53a4:	48 8b 95 88 04 00 00 	mov    rdx,QWORD PTR [rbp+0x488]
   2fc4c53ab:	4c 8b 85 a8 04 00 00 	mov    r8,QWORD PTR [rbp+0x4a8]
   2fc4c53b2:	49 b9 3b d3 73 10 3d 	movabs r9,0x7691053d1073d33b
   2fc4c53b9:	05 91 76 
   2fc4c53bc:	49 89 ca             	mov    r10,rcx
   2fc4c53bf:	4d 29 ca             	sub    r10,r9
   2fc4c53c2:	49 bb 1c 5d 1b 64 8f 	movabs r11,0x4e40638f641b5d1c
   2fc4c53c9:	63 40 4e 
   2fc4c53cc:	4d 29 da             	sub    r10,r11
   2fc4c53cf:	4d 01 ca             	add    r10,r9
   2fc4c53d2:	49 b9 f0 6a bf a2 b8 	movabs r9,0x43fa3eb8a2bf6af0
   2fc4c53d9:	3e fa 43 
   2fc4c53dc:	4c 01 ca             	add    rdx,r9
   2fc4c53df:	4c 01 d2             	add    rdx,r10
   2fc4c53e2:	4c 29 ca             	sub    rdx,r9
   2fc4c53e5:	49 b9 57 5c 53 a6 be 	movabs r9,0x4772d7bea6535c57
   2fc4c53ec:	d7 72 47 
   2fc4c53ef:	4c 29 ca             	sub    rdx,r9
   2fc4c53f2:	49 ba 7e 9d 8a e0 8d 	movabs r10,0x776ca38de08a9d7e
   2fc4c53f9:	a3 6c 77 
   2fc4c53fc:	4c 29 d2             	sub    rdx,r10
   2fc4c53ff:	4c 01 ca             	add    rdx,r9
   2fc4c5402:	49 b9 ad 1b 25 d0 e6 	movabs r9,0x5619ece6d0251bad
   2fc4c5409:	ec 19 56 
   2fc4c540c:	4c 01 ca             	add    rdx,r9
   2fc4c540f:	4c 01 c2             	add    rdx,r8
   2fc4c5412:	4c 29 ca             	sub    rdx,r9
   2fc4c5415:	49 89 c8             	mov    r8,rcx
   2fc4c5418:	4d 29 d0             	sub    r8,r10
   2fc4c541b:	4c 29 c2             	sub    rdx,r8
   2fc4c541e:	49 b8 e7 92 b2 44 59 	movabs r8,0x1a65f25944b292e7
   2fc4c5425:	f2 65 1a 
   2fc4c5428:	4d 89 c1             	mov    r9,r8
   2fc4c542b:	49 81 c1 00 00 00 00 	add    r9,0x0
   2fc4c5432:	4d 29 d9             	sub    r9,r11
   2fc4c5435:	4d 29 c1             	sub    r9,r8
   2fc4c5438:	49 89 c8             	mov    r8,rcx
   2fc4c543b:	4d 29 c8             	sub    r8,r9
   2fc4c543e:	4c 01 c2             	add    rdx,r8
   2fc4c5441:	4c 8b 85 d0 00 00 00 	mov    r8,QWORD PTR [rbp+0xd0]
   2fc4c5448:	41 8b 00             	mov    eax,DWORD PTR [r8]
   2fc4c544b:	41 89 c0             	mov    r8d,eax
   2fc4c544e:	49 b9 fd 65 84 87 af 	movabs r9,0xfd5a92af878465fd
   2fc4c5455:	92 5a fd 
   2fc4c5458:	4d 89 ca             	mov    r10,r9
   2fc4c545b:	49 81 c2 00 00 00 00 	add    r10,0x0
   2fc4c5462:	49 bb 50 33 a9 3d 12 	movabs r11,0x6189123da93350
   2fc4c5469:	89 61 00 
   2fc4c546c:	4d 29 da             	sub    r10,r11
   2fc4c546f:	4d 29 ca             	sub    r10,r9
   2fc4c5472:	49 b9 63 5d b5 c9 fd 	movabs r9,0x691784fdc9b55d63
   2fc4c5479:	84 17 69 
   2fc4c547c:	4c 29 ca             	sub    rdx,r9
   2fc4c547f:	4c 01 d2             	add    rdx,r10
   2fc4c5482:	4c 01 ca             	add    rdx,r9
   2fc4c5485:	49 b9 4c a0 5d ee 1e 	movabs r9,0xfc0c8f1eee5da04c
   2fc4c548c:	8f 0c fc 
   2fc4c548f:	4d 89 ca             	mov    r10,r9
   2fc4c5492:	49 81 c2 00 00 00 00 	add    r10,0x0
   2fc4c5499:	4d 29 c2             	sub    r10,r8
   2fc4c549c:	4d 29 ca             	sub    r10,r9
   2fc4c549f:	49 b8 77 5e 42 47 af 	movabs r8,0x4986d0af47425e77
   2fc4c54a6:	d0 86 49 
   2fc4c54a9:	4c 01 c2             	add    rdx,r8
   2fc4c54ac:	4c 29 d2             	sub    rdx,r10
   2fc4c54af:	4c 29 c2             	sub    rdx,r8
   2fc4c54b2:	49 b8 41 db a2 10 f8 	movabs r8,0xf03976f810a2db41
   2fc4c54b9:	76 39 f0 
   2fc4c54bc:	4c 29 c1             	sub    rcx,r8
   2fc4c54bf:	4c 29 d9             	sub    rcx,r11
   2fc4c54c2:	4c 01 c1             	add    rcx,r8
   2fc4c54c5:	49 b8 ba 16 95 03 7f 	movabs r8,0xef8b447f039516ba
   2fc4c54cc:	44 8b ef 
